	.file	"ReflectionValueCall.cpp"
	.intel_syntax noprefix
	.text
.Ltext0:
	.cfi_sections	.debug_frame
	.section .rdata,"dr"
_ZStL19piecewise_construct:
	.space 1
.lcomm _ZStL8__ioinit,1,1
_ZStL13allocator_arg:
	.space 1
_ZStL6ignore:
	.space 1
.LC0:
	.ascii "Enter call---\0"
.LC1:
	.ascii "Exit call---\0"
	.text
	.globl	_Z4func11MyValueTypeS_
	.def	_Z4func11MyValueTypeS_;	.scl	2;	.type	32;	.endef
	.seh_proc	_Z4func11MyValueTypeS_
_Z4func11MyValueTypeS_:
.LFB2277:
	.file 1 "./ReflectionValueCall.cpp"
	.loc 1 23 1
	.cfi_startproc
	push	rbp
	.seh_pushreg	rbp
	.cfi_def_cfa_offset 16
	.cfi_offset 6, -16
	push	rsi
	.seh_pushreg	rsi
	.cfi_def_cfa_offset 24
	.cfi_offset 4, -24
	push	rbx
	.seh_pushreg	rbx
	.cfi_def_cfa_offset 32
	.cfi_offset 3, -32
	mov	rbp, rsp
	.seh_setframe	rbp, 0
	.cfi_def_cfa_register 6
	sub	rsp, 32
	.seh_stackalloc	32
	.seh_endprologue
	mov	rsi, rcx
	mov	rbx, rdx
	.loc 1 24 15
	lea	rdx, .LC0[rip]
	mov	rcx, QWORD PTR .refptr._ZSt4cout[rip]
	call	_ZStlsISt11char_traitsIcEERSt13basic_ostreamIcT_ES5_PKc
	.loc 1 24 39
	mov	rdx, QWORD PTR .refptr._ZSt4endlIcSt11char_traitsIcEERSt13basic_ostreamIT_T0_ES6_[rip]
	mov	rcx, rax
	call	_ZNSolsEPFRSoS_E
	.loc 1 25 58
	mov	rax, rsi
	.loc 1 25 65
	mov	rax, QWORD PTR [rax]
	mov	rdx, rax
	mov	rcx, QWORD PTR .refptr._ZSt4cout[rip]
	call	_ZNSolsEy
	.loc 1 25 75
	mov	rdx, QWORD PTR .refptr._ZSt4endlIcSt11char_traitsIcEERSt13basic_ostreamIT_T0_ES6_[rip]
	mov	rcx, rax
	call	_ZNSolsEPFRSoS_E
	.loc 1 26 59
	mov	rax, rbx
	.loc 1 26 66
	mov	rax, QWORD PTR [rax]
	mov	rdx, rax
	mov	rcx, QWORD PTR .refptr._ZSt4cout[rip]
	call	_ZNSolsEy
	.loc 1 26 76
	mov	rdx, QWORD PTR .refptr._ZSt4endlIcSt11char_traitsIcEERSt13basic_ostreamIT_T0_ES6_[rip]
	mov	rcx, rax
	call	_ZNSolsEPFRSoS_E
	.loc 1 27 15
	lea	rdx, .LC1[rip]
	mov	rcx, QWORD PTR .refptr._ZSt4cout[rip]
	call	_ZStlsISt11char_traitsIcEERSt13basic_ostreamIcT_ES5_PKc
	.loc 1 27 38
	mov	rdx, QWORD PTR .refptr._ZSt4endlIcSt11char_traitsIcEERSt13basic_ostreamIT_T0_ES6_[rip]
	mov	rcx, rax
	call	_ZNSolsEPFRSoS_E
	.loc 1 28 1
	nop
	add	rsp, 32
	pop	rbx
	.cfi_restore 3
	pop	rsi
	.cfi_restore 4
	pop	rbp
	.cfi_restore 6
	.cfi_def_cfa 7, 24
	ret
	.cfi_endproc
.LFE2277:
	.seh_endproc
	.section .rdata,"dr"
.LC2:
	.ascii "Enter bigfunc---\0"
.LC3:
	.ascii "Exit bigfunc\0"
	.text
	.globl	_Z5func511MyValueTypeS_S_S_S_
	.def	_Z5func511MyValueTypeS_S_S_S_;	.scl	2;	.type	32;	.endef
	.seh_proc	_Z5func511MyValueTypeS_S_S_S_
_Z5func511MyValueTypeS_S_S_S_:
.LFB2278:
	.loc 1 31 1
	.cfi_startproc
	push	rbp
	.seh_pushreg	rbp
	.cfi_def_cfa_offset 16
	.cfi_offset 6, -16
	push	r12
	.seh_pushreg	r12
	.cfi_def_cfa_offset 24
	.cfi_offset 12, -24
	push	rdi
	.seh_pushreg	rdi
	.cfi_def_cfa_offset 32
	.cfi_offset 5, -32
	push	rsi
	.seh_pushreg	rsi
	.cfi_def_cfa_offset 40
	.cfi_offset 4, -40
	push	rbx
	.seh_pushreg	rbx
	.cfi_def_cfa_offset 48
	.cfi_offset 3, -48
	mov	rbp, rsp
	.seh_setframe	rbp, 0
	.cfi_def_cfa_register 6
	sub	rsp, 32
	.seh_stackalloc	32
	.seh_endprologue
	mov	rsi, rcx
	mov	rbx, rdx
	mov	r12, r8
	mov	rdi, r9
	.loc 1 32 15
	lea	rdx, .LC2[rip]
	mov	rcx, QWORD PTR .refptr._ZSt4cout[rip]
	call	_ZStlsISt11char_traitsIcEERSt13basic_ostreamIcT_ES5_PKc
	.loc 1 32 42
	mov	rdx, QWORD PTR .refptr._ZSt4endlIcSt11char_traitsIcEERSt13basic_ostreamIT_T0_ES6_[rip]
	mov	rcx, rax
	call	_ZNSolsEPFRSoS_E
	.loc 1 34 58
	mov	rax, rsi
	.loc 1 34 65
	mov	rax, QWORD PTR [rax]
	mov	rdx, rax
	mov	rcx, QWORD PTR .refptr._ZSt4cout[rip]
	call	_ZNSolsEy
	.loc 1 34 75
	mov	rdx, QWORD PTR .refptr._ZSt4endlIcSt11char_traitsIcEERSt13basic_ostreamIT_T0_ES6_[rip]
	mov	rcx, rax
	call	_ZNSolsEPFRSoS_E
	.loc 1 35 59
	mov	rax, rbx
	.loc 1 35 66
	mov	rax, QWORD PTR [rax]
	mov	rdx, rax
	mov	rcx, QWORD PTR .refptr._ZSt4cout[rip]
	call	_ZNSolsEy
	.loc 1 35 76
	mov	rdx, QWORD PTR .refptr._ZSt4endlIcSt11char_traitsIcEERSt13basic_ostreamIT_T0_ES6_[rip]
	mov	rcx, rax
	call	_ZNSolsEPFRSoS_E
	.loc 1 36 59
	mov	rax, r12
	.loc 1 36 66
	mov	rax, QWORD PTR [rax]
	mov	rdx, rax
	mov	rcx, QWORD PTR .refptr._ZSt4cout[rip]
	call	_ZNSolsEy
	.loc 1 36 76
	mov	rdx, QWORD PTR .refptr._ZSt4endlIcSt11char_traitsIcEERSt13basic_ostreamIT_T0_ES6_[rip]
	mov	rcx, rax
	call	_ZNSolsEPFRSoS_E
	.loc 1 37 59
	mov	rax, rdi
	.loc 1 37 66
	mov	rax, QWORD PTR [rax]
	mov	rdx, rax
	mov	rcx, QWORD PTR .refptr._ZSt4cout[rip]
	call	_ZNSolsEy
	.loc 1 37 76
	mov	rdx, QWORD PTR .refptr._ZSt4endlIcSt11char_traitsIcEERSt13basic_ostreamIT_T0_ES6_[rip]
	mov	rcx, rax
	call	_ZNSolsEPFRSoS_E
	.loc 1 38 59
	mov	rax, QWORD PTR 80[rbp]
	.loc 1 38 66
	mov	rax, QWORD PTR [rax]
	mov	rdx, rax
	mov	rcx, QWORD PTR .refptr._ZSt4cout[rip]
	call	_ZNSolsEy
	.loc 1 38 76
	mov	rdx, QWORD PTR .refptr._ZSt4endlIcSt11char_traitsIcEERSt13basic_ostreamIT_T0_ES6_[rip]
	mov	rcx, rax
	call	_ZNSolsEPFRSoS_E
	.loc 1 40 15
	lea	rdx, .LC3[rip]
	mov	rcx, QWORD PTR .refptr._ZSt4cout[rip]
	call	_ZStlsISt11char_traitsIcEERSt13basic_ostreamIcT_ES5_PKc
	.loc 1 40 38
	mov	rdx, QWORD PTR .refptr._ZSt4endlIcSt11char_traitsIcEERSt13basic_ostreamIT_T0_ES6_[rip]
	mov	rcx, rax
	call	_ZNSolsEPFRSoS_E
	.loc 1 41 1
	nop
	add	rsp, 32
	pop	rbx
	.cfi_restore 3
	pop	rsi
	.cfi_restore 4
	pop	rdi
	.cfi_restore 5
	pop	r12
	.cfi_restore 12
	pop	rbp
	.cfi_restore 6
	.cfi_def_cfa 7, 40
	ret
	.cfi_endproc
.LFE2278:
	.seh_endproc
	.globl	_Z6func1011MyValueTypeS_S_S_S_S_S_S_S_S_
	.def	_Z6func1011MyValueTypeS_S_S_S_S_S_S_S_S_;	.scl	2;	.type	32;	.endef
	.seh_proc	_Z6func1011MyValueTypeS_S_S_S_S_S_S_S_S_
_Z6func1011MyValueTypeS_S_S_S_S_S_S_S_S_:
.LFB2279:
	.loc 1 46 1
	.cfi_startproc
	push	rbp
	.seh_pushreg	rbp
	.cfi_def_cfa_offset 16
	.cfi_offset 6, -16
	push	r12
	.seh_pushreg	r12
	.cfi_def_cfa_offset 24
	.cfi_offset 12, -24
	push	rdi
	.seh_pushreg	rdi
	.cfi_def_cfa_offset 32
	.cfi_offset 5, -32
	push	rsi
	.seh_pushreg	rsi
	.cfi_def_cfa_offset 40
	.cfi_offset 4, -40
	push	rbx
	.seh_pushreg	rbx
	.cfi_def_cfa_offset 48
	.cfi_offset 3, -48
	mov	rbp, rsp
	.seh_setframe	rbp, 0
	.cfi_def_cfa_register 6
	sub	rsp, 32
	.seh_stackalloc	32
	.seh_endprologue
	mov	rsi, rcx
	mov	rbx, rdx
	mov	r12, r8
	mov	rdi, r9
	.loc 1 47 15
	lea	rdx, .LC2[rip]
	mov	rcx, QWORD PTR .refptr._ZSt4cout[rip]
	call	_ZStlsISt11char_traitsIcEERSt13basic_ostreamIcT_ES5_PKc
	.loc 1 47 42
	mov	rdx, QWORD PTR .refptr._ZSt4endlIcSt11char_traitsIcEERSt13basic_ostreamIT_T0_ES6_[rip]
	mov	rcx, rax
	call	_ZNSolsEPFRSoS_E
	.loc 1 49 58
	mov	rax, rsi
	.loc 1 49 65
	mov	rax, QWORD PTR [rax]
	mov	rdx, rax
	mov	rcx, QWORD PTR .refptr._ZSt4cout[rip]
	call	_ZNSolsEy
	.loc 1 49 75
	mov	rdx, QWORD PTR .refptr._ZSt4endlIcSt11char_traitsIcEERSt13basic_ostreamIT_T0_ES6_[rip]
	mov	rcx, rax
	call	_ZNSolsEPFRSoS_E
	.loc 1 50 59
	mov	rax, rbx
	.loc 1 50 66
	mov	rax, QWORD PTR [rax]
	mov	rdx, rax
	mov	rcx, QWORD PTR .refptr._ZSt4cout[rip]
	call	_ZNSolsEy
	.loc 1 50 76
	mov	rdx, QWORD PTR .refptr._ZSt4endlIcSt11char_traitsIcEERSt13basic_ostreamIT_T0_ES6_[rip]
	mov	rcx, rax
	call	_ZNSolsEPFRSoS_E
	.loc 1 51 59
	mov	rax, r12
	.loc 1 51 66
	mov	rax, QWORD PTR [rax]
	mov	rdx, rax
	mov	rcx, QWORD PTR .refptr._ZSt4cout[rip]
	call	_ZNSolsEy
	.loc 1 51 76
	mov	rdx, QWORD PTR .refptr._ZSt4endlIcSt11char_traitsIcEERSt13basic_ostreamIT_T0_ES6_[rip]
	mov	rcx, rax
	call	_ZNSolsEPFRSoS_E
	.loc 1 52 59
	mov	rax, rdi
	.loc 1 52 66
	mov	rax, QWORD PTR [rax]
	mov	rdx, rax
	mov	rcx, QWORD PTR .refptr._ZSt4cout[rip]
	call	_ZNSolsEy
	.loc 1 52 76
	mov	rdx, QWORD PTR .refptr._ZSt4endlIcSt11char_traitsIcEERSt13basic_ostreamIT_T0_ES6_[rip]
	mov	rcx, rax
	call	_ZNSolsEPFRSoS_E
	.loc 1 53 59
	mov	rax, QWORD PTR 80[rbp]
	.loc 1 53 66
	mov	rax, QWORD PTR [rax]
	mov	rdx, rax
	mov	rcx, QWORD PTR .refptr._ZSt4cout[rip]
	call	_ZNSolsEy
	.loc 1 53 76
	mov	rdx, QWORD PTR .refptr._ZSt4endlIcSt11char_traitsIcEERSt13basic_ostreamIT_T0_ES6_[rip]
	mov	rcx, rax
	call	_ZNSolsEPFRSoS_E
	.loc 1 54 59
	mov	rax, QWORD PTR 88[rbp]
	.loc 1 54 66
	mov	rax, QWORD PTR [rax]
	mov	rdx, rax
	mov	rcx, QWORD PTR .refptr._ZSt4cout[rip]
	call	_ZNSolsEy
	.loc 1 54 76
	mov	rdx, QWORD PTR .refptr._ZSt4endlIcSt11char_traitsIcEERSt13basic_ostreamIT_T0_ES6_[rip]
	mov	rcx, rax
	call	_ZNSolsEPFRSoS_E
	.loc 1 55 59
	mov	rax, QWORD PTR 96[rbp]
	.loc 1 55 66
	mov	rax, QWORD PTR [rax]
	mov	rdx, rax
	mov	rcx, QWORD PTR .refptr._ZSt4cout[rip]
	call	_ZNSolsEy
	.loc 1 55 76
	mov	rdx, QWORD PTR .refptr._ZSt4endlIcSt11char_traitsIcEERSt13basic_ostreamIT_T0_ES6_[rip]
	mov	rcx, rax
	call	_ZNSolsEPFRSoS_E
	.loc 1 56 59
	mov	rax, QWORD PTR 104[rbp]
	.loc 1 56 66
	mov	rax, QWORD PTR [rax]
	mov	rdx, rax
	mov	rcx, QWORD PTR .refptr._ZSt4cout[rip]
	call	_ZNSolsEy
	.loc 1 56 76
	mov	rdx, QWORD PTR .refptr._ZSt4endlIcSt11char_traitsIcEERSt13basic_ostreamIT_T0_ES6_[rip]
	mov	rcx, rax
	call	_ZNSolsEPFRSoS_E
	.loc 1 57 59
	mov	rax, QWORD PTR 112[rbp]
	.loc 1 57 66
	mov	rax, QWORD PTR [rax]
	mov	rdx, rax
	mov	rcx, QWORD PTR .refptr._ZSt4cout[rip]
	call	_ZNSolsEy
	.loc 1 57 76
	mov	rdx, QWORD PTR .refptr._ZSt4endlIcSt11char_traitsIcEERSt13basic_ostreamIT_T0_ES6_[rip]
	mov	rcx, rax
	call	_ZNSolsEPFRSoS_E
	.loc 1 58 60
	mov	rax, QWORD PTR 120[rbp]
	.loc 1 58 67
	mov	rax, QWORD PTR [rax]
	mov	rdx, rax
	mov	rcx, QWORD PTR .refptr._ZSt4cout[rip]
	call	_ZNSolsEy
	.loc 1 58 77
	mov	rdx, QWORD PTR .refptr._ZSt4endlIcSt11char_traitsIcEERSt13basic_ostreamIT_T0_ES6_[rip]
	mov	rcx, rax
	call	_ZNSolsEPFRSoS_E
	.loc 1 60 15
	lea	rdx, .LC3[rip]
	mov	rcx, QWORD PTR .refptr._ZSt4cout[rip]
	call	_ZStlsISt11char_traitsIcEERSt13basic_ostreamIcT_ES5_PKc
	.loc 1 60 38
	mov	rdx, QWORD PTR .refptr._ZSt4endlIcSt11char_traitsIcEERSt13basic_ostreamIT_T0_ES6_[rip]
	mov	rcx, rax
	call	_ZNSolsEPFRSoS_E
	.loc 1 61 1
	nop
	add	rsp, 32
	pop	rbx
	.cfi_restore 3
	pop	rsi
	.cfi_restore 4
	pop	rdi
	.cfi_restore 5
	pop	r12
	.cfi_restore 12
	pop	rbp
	.cfi_restore 6
	.cfi_def_cfa 7, 40
	ret
	.cfi_endproc
.LFE2279:
	.seh_endproc
	.def	__main;	.scl	2;	.type	32;	.endef
	.globl	main
	.def	main;	.scl	2;	.type	32;	.endef
	.seh_proc	main
main:
.LFB2280:
	.loc 1 64 1
	.cfi_startproc
	push	rbp
	.seh_pushreg	rbp
	.cfi_def_cfa_offset 16
	.cfi_offset 6, -16
	push	r15
	.seh_pushreg	r15
	.cfi_def_cfa_offset 24
	.cfi_offset 15, -24
	push	r14
	.seh_pushreg	r14
	.cfi_def_cfa_offset 32
	.cfi_offset 14, -32
	push	r13
	.seh_pushreg	r13
	.cfi_def_cfa_offset 40
	.cfi_offset 13, -40
	push	r12
	.seh_pushreg	r12
	.cfi_def_cfa_offset 48
	.cfi_offset 12, -48
	push	rdi
	.seh_pushreg	rdi
	.cfi_def_cfa_offset 56
	.cfi_offset 5, -56
	push	rsi
	.seh_pushreg	rsi
	.cfi_def_cfa_offset 64
	.cfi_offset 4, -64
	push	rbx
	.seh_pushreg	rbx
	.cfi_def_cfa_offset 72
	.cfi_offset 3, -72
	sub	rsp, 456
	.seh_stackalloc	456
	.cfi_def_cfa_offset 528
	lea	rbp, 128[rsp]
	.seh_setframe	rbp, 128
	.cfi_def_cfa 6, 400
	.seh_endprologue
	.loc 1 64 1
	call	__main
.LVL0:
	.loc 1 72 21
	mov	QWORD PTR 232[rbp], 1230981
	.loc 1 74 8
	mov	rax, QWORD PTR 232[rbp]
	mov	QWORD PTR 243[rbp], rax
	mov	eax, DWORD PTR 240[rbp]
	mov	DWORD PTR 251[rbp], eax
	.loc 1 76 6
	mov	rax, QWORD PTR 243[rbp]
	mov	QWORD PTR 112[rbp], rax
	mov	eax, DWORD PTR 251[rbp]
	mov	DWORD PTR 120[rbp], eax
	mov	rax, QWORD PTR 243[rbp]
	mov	QWORD PTR 96[rbp], rax
	mov	eax, DWORD PTR 251[rbp]
	mov	DWORD PTR 104[rbp], eax
	lea	rdx, 96[rbp]
	lea	rax, 112[rbp]
	mov	rcx, rax
.LEHB0:
	call	_Z4func11MyValueTypeS_
	.loc 1 78 9
	lea	rax, _Z4func11MyValueTypeS_[rip]
	mov	QWORD PTR 296[rbp], rax
	.loc 1 80 10
	mov	rax, QWORD PTR 243[rbp]
	mov	QWORD PTR 96[rbp], rax
	mov	eax, DWORD PTR 251[rbp]
	mov	DWORD PTR 104[rbp], eax
	mov	rax, QWORD PTR 243[rbp]
	mov	QWORD PTR 112[rbp], rax
	mov	eax, DWORD PTR 251[rbp]
	mov	DWORD PTR 120[rbp], eax
	lea	rdx, 112[rbp]
	lea	rax, 96[rbp]
	mov	r8, QWORD PTR 296[rbp]
	mov	rcx, rax
	call	r8
.LVL1:
	.loc 1 84 44
	mov	ecx, 12
	call	_Znay
	.loc 1 84 15
	mov	QWORD PTR 224[rbp], rax
	.loc 1 86 14
	mov	rcx, QWORD PTR 224[rbp]
	.loc 1 86 8
	lea	rax, 232[rbp]
	mov	r8d, 12
	mov	rdx, rax
	call	memcpy
	.loc 1 90 10
	mov	rdx, QWORD PTR 224[rbp]
	mov	rcx, QWORD PTR 224[rbp]
	mov	rax, QWORD PTR 296[rbp]
	call	rax
.LVL2:
	.loc 1 93 8
	mov	rax, QWORD PTR 232[rbp]
	mov	QWORD PTR 212[rbp], rax
	mov	eax, DWORD PTR 240[rbp]
	mov	DWORD PTR 220[rbp], eax
	.loc 1 95 10
	lea	rdx, 212[rbp]
	lea	rax, 212[rbp]
	mov	r8, QWORD PTR 296[rbp]
	mov	rcx, rax
	call	r8
.LVL3:
.LEHE0:
	.loc 1 97 9
	mov	QWORD PTR 288[rbp], 10
	.loc 1 99 54
	lea	rax, 255[rbp]
	mov	rcx, rax
	call	_ZNSaI25WrappingValueTypeInstanceEC1Ev
	lea	rcx, 255[rbp]
	mov	rdx, QWORD PTR 288[rbp]
	lea	rax, 176[rbp]
	mov	r8, rcx
	mov	rcx, rax
.LEHB1:
	call	_ZNSt6vectorI25WrappingValueTypeInstanceSaIS0_EEC1EyRKS1_
.LEHE1:
	lea	rax, 255[rbp]
	mov	rcx, rax
	call	_ZNSaI25WrappingValueTypeInstanceED1Ev
.LBB2:
	.loc 1 101 14
	mov	QWORD PTR 312[rbp], 0
.L6:
	.loc 1 101 29 discriminator 2
	mov	rax, QWORD PTR 312[rbp]
	cmp	rax, QWORD PTR 288[rbp]
	jnb	.L5
	.loc 1 103 12
	mov	rdx, QWORD PTR 312[rbp]
	lea	rax, 176[rbp]
	mov	rcx, rax
	call	_ZNSt6vectorI25WrappingValueTypeInstanceSaIS0_EEixEy
	mov	rbx, rax
	.loc 1 103 51
	mov	ecx, 12
.LEHB2:
	call	_Znay
	.loc 1 103 22 discriminator 1
	mov	QWORD PTR [rbx], rax
	.loc 1 105 19 discriminator 1
	mov	rdx, QWORD PTR 312[rbp]
	lea	rax, 176[rbp]
	mov	rcx, rax
	call	_ZNSt6vectorI25WrappingValueTypeInstanceSaIS0_EEixEy
	.loc 1 105 21 discriminator 1
	mov	rcx, QWORD PTR [rax]
	.loc 1 105 9 discriminator 1
	lea	rax, 232[rbp]
	mov	r8d, 12
	mov	rdx, rax
	call	memcpy
	.loc 1 101 2 discriminator 1
	add	QWORD PTR 312[rbp], 1
	jmp	.L6
.L5:
.LBE2:
	.loc 1 109 8
	lea	rax, _Z6func1011MyValueTypeS_S_S_S_S_S_S_S_S_[rip]
	mov	QWORD PTR 280[rbp], rax
	.loc 1 111 9
	mov	QWORD PTR 272[rbp], 0
	.loc 1 113 48
	lea	rax, 176[rbp]
	mov	rcx, rax
	call	_ZNSt6vectorI25WrappingValueTypeInstanceSaIS0_EE4dataEv
	mov	QWORD PTR 264[rbp], rax
	.loc 1 120 46
	lea	rax, 176[rbp]
	mov	edx, 0
	mov	rcx, rax
	call	_ZNSt6vectorI25WrappingValueTypeInstanceSaIS0_EEixEy
	mov	rax, QWORD PTR [rax]
	mov	QWORD PTR 168[rbp], rax
	.loc 1 121 47
	lea	rax, 176[rbp]
	mov	edx, 1
	mov	rcx, rax
	call	_ZNSt6vectorI25WrappingValueTypeInstanceSaIS0_EEixEy
	mov	rax, QWORD PTR [rax]
	mov	QWORD PTR 160[rbp], rax
	.loc 1 122 46
	lea	rax, 176[rbp]
	mov	edx, 2
	mov	rcx, rax
	call	_ZNSt6vectorI25WrappingValueTypeInstanceSaIS0_EEixEy
	mov	rax, QWORD PTR [rax]
	mov	QWORD PTR 152[rbp], rax
	.loc 1 123 47
	lea	rax, 176[rbp]
	mov	edx, 3
	mov	rcx, rax
	call	_ZNSt6vectorI25WrappingValueTypeInstanceSaIS0_EEixEy
	mov	rax, QWORD PTR [rax]
	mov	QWORD PTR 144[rbp], rax
.LBB3:
	.loc 1 125 2
	cmp	QWORD PTR 288[rbp], 4
	jbe	.L7
.LBB4:
.LBB5:
	.loc 1 127 15
	mov	rax, QWORD PTR 288[rbp]
	sub	rax, 1
	mov	QWORD PTR 304[rbp], rax
.L9:
	.loc 1 127 33 discriminator 3
	cmp	QWORD PTR 304[rbp], 3
	jbe	.L7
.LBB6:
	.loc 1 129 45 discriminator 2
	mov	rax, QWORD PTR 304[rbp]
	lea	rdx, 0[0+rax*8]
	mov	rax, QWORD PTR 264[rbp]
	add	rax, rdx
	.loc 1 129 30 discriminator 2
	mov	rax, QWORD PTR [rax]
	mov	QWORD PTR 136[rbp], rax
	.loc 1 134 32 discriminator 2
	mov	rax, QWORD PTR 288[rbp]
	sub	rax, QWORD PTR 304[rbp]
	.loc 1 135 5 discriminator 2
	add	rax, 3
	lea	rdx, 0[0+rax*8]
	mov	rax, QWORD PTR 136[rbp]
/APP
 # 135 ".\ReflectionValueCall.cpp" 1
	mov [rsp+rdx], rax
	
 # 0 "" 2
/NO_APP
.LBE6:
	.loc 1 127 3 discriminator 2
	sub	QWORD PTR 304[rbp], 1
	jmp	.L9
.L7:
.LBE5:
.LBE4:
.LBE3:
	.loc 1 139 2
	cmp	QWORD PTR 288[rbp], 3
	jbe	.L10
	.loc 1 150 4
	mov	r10, QWORD PTR 168[rbp]
	mov	r11, QWORD PTR 160[rbp]
	mov	rbx, QWORD PTR 152[rbp]
	mov	rsi, QWORD PTR 144[rbp]
	mov	rdi, QWORD PTR 280[rbp]
	mov	r12, QWORD PTR 272[rbp]
/APP
 # 150 ".\ReflectionValueCall.cpp" 1
	mov rcx, r10
	mov rdx, r11
	mov r8, rbx
	mov r9, rsi
	call rdi
	mov r10, rax
	
 # 0 "" 2
/NO_APP
	mov	QWORD PTR 256[rbp], r10
	jmp	.L11
.L10:
	.loc 1 151 7
	cmp	QWORD PTR 288[rbp], 2
	jbe	.L12
	.loc 1 161 4
	mov	r9, QWORD PTR 168[rbp]
	mov	r10, QWORD PTR 160[rbp]
	mov	r11, QWORD PTR 152[rbp]
	mov	rbx, QWORD PTR 280[rbp]
	mov	rsi, QWORD PTR 272[rbp]
/APP
 # 161 ".\ReflectionValueCall.cpp" 1
	mov rcx, r9
	mov rdx, r10
	mov r8, r11
	call rbx
	mov r9, rax
	
 # 0 "" 2
/NO_APP
	mov	QWORD PTR 256[rbp], r9
	jmp	.L11
.L12:
	.loc 1 162 7
	cmp	QWORD PTR 288[rbp], 1
	jbe	.L13
	.loc 1 171 4
	mov	r8, QWORD PTR 168[rbp]
	mov	r9, QWORD PTR 160[rbp]
	mov	r10, QWORD PTR 280[rbp]
	mov	r11, QWORD PTR 272[rbp]
/APP
 # 171 ".\ReflectionValueCall.cpp" 1
	mov rcx, r8
	mov rdx, r9
	call r10
	mov r8, rax
	
 # 0 "" 2
/NO_APP
	mov	QWORD PTR 256[rbp], r8
	jmp	.L11
.L13:
	.loc 1 172 7
	cmp	QWORD PTR 288[rbp], 0
	je	.L11
	.loc 1 180 4
	mov	rdx, QWORD PTR 168[rbp]
	mov	r8, QWORD PTR 280[rbp]
	mov	r9, QWORD PTR 272[rbp]
/APP
 # 180 ".\ReflectionValueCall.cpp" 1
	mov rcx, rdx
	call r8
	mov rdx, rax
	
 # 0 "" 2
/NO_APP
	mov	QWORD PTR 256[rbp], rdx
.L11:
	.loc 1 182 497
	lea	rax, 176[rbp]
	mov	edx, 4
	mov	rcx, rax
	call	_ZNSt6vectorI25WrappingValueTypeInstanceSaIS0_EEixEy
	.loc 1 182 499
	mov	rbx, QWORD PTR [rax]
	.loc 1 182 447
	lea	rax, 176[rbp]
	mov	edx, 3
	mov	rcx, rax
	call	_ZNSt6vectorI25WrappingValueTypeInstanceSaIS0_EEixEy
	.loc 1 182 449
	mov	rsi, QWORD PTR [rax]
	.loc 1 182 397
	lea	rax, 176[rbp]
	mov	edx, 2
	mov	rcx, rax
	call	_ZNSt6vectorI25WrappingValueTypeInstanceSaIS0_EEixEy
	.loc 1 182 399
	mov	rdi, QWORD PTR [rax]
	.loc 1 182 347
	lea	rax, 176[rbp]
	mov	edx, 1
	mov	rcx, rax
	call	_ZNSt6vectorI25WrappingValueTypeInstanceSaIS0_EEixEy
	.loc 1 182 349
	mov	r12, QWORD PTR [rax]
	.loc 1 182 297
	lea	rax, 176[rbp]
	mov	edx, 0
	mov	rcx, rax
	call	_ZNSt6vectorI25WrappingValueTypeInstanceSaIS0_EEixEy
	.loc 1 182 299
	mov	r13, QWORD PTR [rax]
	.loc 1 182 247
	lea	rax, 176[rbp]
	mov	edx, 4
	mov	rcx, rax
	call	_ZNSt6vectorI25WrappingValueTypeInstanceSaIS0_EEixEy
	.loc 1 182 249
	mov	r14, QWORD PTR [rax]
	.loc 1 182 197
	lea	rax, 176[rbp]
	mov	edx, 3
	mov	rcx, rax
	call	_ZNSt6vectorI25WrappingValueTypeInstanceSaIS0_EEixEy
	.loc 1 182 199
	mov	r15, QWORD PTR [rax]
	.loc 1 182 147
	lea	rax, 176[rbp]
	mov	edx, 2
	mov	rcx, rax
	call	_ZNSt6vectorI25WrappingValueTypeInstanceSaIS0_EEixEy
	.loc 1 182 149
	mov	rdx, QWORD PTR [rax]
	mov	QWORD PTR -40[rbp], rdx
	.loc 1 182 97
	lea	rax, 176[rbp]
	mov	edx, 1
	mov	rcx, rax
	call	_ZNSt6vectorI25WrappingValueTypeInstanceSaIS0_EEixEy
	.loc 1 182 99
	mov	rcx, QWORD PTR [rax]
	mov	QWORD PTR -48[rbp], rcx
	.loc 1 182 47
	lea	rax, 176[rbp]
	mov	edx, 0
	mov	rcx, rax
	call	_ZNSt6vectorI25WrappingValueTypeInstanceSaIS0_EEixEy
	.loc 1 182 49
	mov	rax, QWORD PTR [rax]
	.loc 1 182 8
	mov	rdx, QWORD PTR [rax]
	mov	QWORD PTR 96[rbp], rdx
	mov	eax, DWORD PTR 8[rax]
	mov	DWORD PTR 104[rbp], eax
	mov	rcx, QWORD PTR -48[rbp]
	mov	rax, QWORD PTR [rcx]
	mov	QWORD PTR 112[rbp], rax
	mov	eax, DWORD PTR 8[rcx]
	mov	DWORD PTR 120[rbp], eax
	mov	rdx, QWORD PTR -40[rbp]
	mov	rax, QWORD PTR [rdx]
	mov	QWORD PTR 80[rbp], rax
	mov	eax, DWORD PTR 8[rdx]
	mov	DWORD PTR 88[rbp], eax
	mov	rax, QWORD PTR [r15]
	mov	QWORD PTR 64[rbp], rax
	mov	eax, DWORD PTR 8[r15]
	mov	DWORD PTR 72[rbp], eax
	mov	rax, QWORD PTR [r14]
	mov	QWORD PTR 48[rbp], rax
	mov	eax, DWORD PTR 8[r14]
	mov	DWORD PTR 56[rbp], eax
	mov	rax, QWORD PTR 0[r13]
	mov	QWORD PTR 32[rbp], rax
	mov	eax, DWORD PTR 8[r13]
	mov	DWORD PTR 40[rbp], eax
	mov	rax, QWORD PTR [r12]
	mov	QWORD PTR 16[rbp], rax
	mov	eax, DWORD PTR 8[r12]
	mov	DWORD PTR 24[rbp], eax
	mov	rax, QWORD PTR [rdi]
	mov	QWORD PTR 0[rbp], rax
	mov	eax, DWORD PTR 8[rdi]
	mov	DWORD PTR 8[rbp], eax
	mov	rax, QWORD PTR [rsi]
	mov	QWORD PTR -16[rbp], rax
	mov	eax, DWORD PTR 8[rsi]
	mov	DWORD PTR -8[rbp], eax
	mov	rax, QWORD PTR [rbx]
	mov	QWORD PTR -32[rbp], rax
	mov	eax, DWORD PTR 8[rbx]
	mov	DWORD PTR -24[rbp], eax
	lea	r9, 64[rbp]
	lea	r8, 80[rbp]
	lea	rdx, 112[rbp]
	lea	rax, 96[rbp]
	lea	rcx, -32[rbp]
	mov	QWORD PTR 72[rsp], rcx
	lea	rcx, -16[rbp]
	mov	QWORD PTR 64[rsp], rcx
	mov	rcx, rbp
	mov	QWORD PTR 56[rsp], rcx
	lea	rcx, 16[rbp]
	mov	QWORD PTR 48[rsp], rcx
	lea	rcx, 32[rbp]
	mov	QWORD PTR 40[rsp], rcx
	lea	rcx, 48[rbp]
	mov	QWORD PTR 32[rsp], rcx
	mov	rcx, rax
	call	_Z6func1011MyValueTypeS_S_S_S_S_S_S_S_S_
	.loc 1 184 33
	mov	edx, 12
	mov	rcx, QWORD PTR .refptr._ZSt4cout[rip]
	call	_ZNSolsEy
	.loc 1 184 43
	mov	rdx, QWORD PTR .refptr._ZSt4endlIcSt11char_traitsIcEERSt13basic_ostreamIT_T0_ES6_[rip]
	mov	rcx, rax
	call	_ZNSolsEPFRSoS_E
	.loc 1 185 31
	mov	edx, 3
	mov	rcx, QWORD PTR .refptr._ZSt4cout[rip]
	call	_ZNSolsEy
	.loc 1 185 41
	mov	rdx, QWORD PTR .refptr._ZSt4endlIcSt11char_traitsIcEERSt13basic_ostreamIT_T0_ES6_[rip]
	mov	rcx, rax
	call	_ZNSolsEPFRSoS_E
.LEHE2:
	.loc 1 187 9
	mov	ebx, 0
	.loc 1 99 54
	lea	rax, 176[rbp]
	mov	rcx, rax
	call	_ZNSt6vectorI25WrappingValueTypeInstanceSaIS0_EED1Ev
	mov	eax, ebx
	jmp	.L19
.L17:
	mov	rbx, rax
	lea	rax, 255[rbp]
	mov	rcx, rax
	call	_ZNSaI25WrappingValueTypeInstanceED1Ev
	mov	rax, rbx
	mov	rcx, rax
.LEHB3:
	call	_Unwind_Resume
.L18:
	mov	rbx, rax
	lea	rax, 176[rbp]
	mov	rcx, rax
	call	_ZNSt6vectorI25WrappingValueTypeInstanceSaIS0_EED1Ev
	mov	rax, rbx
	mov	rcx, rax
	call	_Unwind_Resume
.LEHE3:
.L19:
	.loc 1 188 1
	add	rsp, 456
	pop	rbx
	.cfi_restore 3
	pop	rsi
	.cfi_restore 4
	pop	rdi
	.cfi_restore 5
	pop	r12
	.cfi_restore 12
	pop	r13
	.cfi_restore 13
	pop	r14
	.cfi_restore 14
	pop	r15
	.cfi_restore 15
	pop	rbp
	.cfi_restore 6
	.cfi_def_cfa 7, -392
	ret
	.cfi_endproc
.LFE2280:
	.def	__gxx_personality_seh0;	.scl	2;	.type	32;	.endef
	.seh_handler	__gxx_personality_seh0, @unwind, @except
	.seh_handlerdata
.LLSDA2280:
	.byte	0xff
	.byte	0xff
	.byte	0x1
	.uleb128 .LLSDACSE2280-.LLSDACSB2280
.LLSDACSB2280:
	.uleb128 .LEHB0-.LFB2280
	.uleb128 .LEHE0-.LEHB0
	.uleb128 0
	.uleb128 0
	.uleb128 .LEHB1-.LFB2280
	.uleb128 .LEHE1-.LEHB1
	.uleb128 .L17-.LFB2280
	.uleb128 0
	.uleb128 .LEHB2-.LFB2280
	.uleb128 .LEHE2-.LEHB2
	.uleb128 .L18-.LFB2280
	.uleb128 0
	.uleb128 .LEHB3-.LFB2280
	.uleb128 .LEHE3-.LEHB3
	.uleb128 0
	.uleb128 0
.LLSDACSE2280:
	.text
	.seh_endproc
	.section	.text$_ZNSaI25WrappingValueTypeInstanceEC1Ev,"x"
	.linkonce discard
	.align 2
	.globl	_ZNSaI25WrappingValueTypeInstanceEC1Ev
	.def	_ZNSaI25WrappingValueTypeInstanceEC1Ev;	.scl	2;	.type	32;	.endef
	.seh_proc	_ZNSaI25WrappingValueTypeInstanceEC1Ev
_ZNSaI25WrappingValueTypeInstanceEC1Ev:
.LFB2523:
	.file 2 "D:/mingw64/lib/gcc/x86_64-w64-mingw32/8.1.0/include/c++/bits/allocator.h"
	.loc 2 131 7
	.cfi_startproc
	push	rbp
	.seh_pushreg	rbp
	.cfi_def_cfa_offset 16
	.cfi_offset 6, -16
	mov	rbp, rsp
	.seh_setframe	rbp, 0
	.cfi_def_cfa_register 6
	sub	rsp, 32
	.seh_stackalloc	32
	.seh_endprologue
	mov	QWORD PTR 16[rbp], rcx
.LBB7:
	.loc 2 131 27
	mov	rcx, QWORD PTR 16[rbp]
	call	_ZN9__gnu_cxx13new_allocatorI25WrappingValueTypeInstanceEC2Ev
.LBE7:
	.loc 2 131 29
	nop
	add	rsp, 32
	pop	rbp
	.cfi_restore 6
	.cfi_def_cfa 7, 8
	ret
	.cfi_endproc
.LFE2523:
	.seh_endproc
	.section	.text$_ZNSaI25WrappingValueTypeInstanceED2Ev,"x"
	.linkonce discard
	.align 2
	.globl	_ZNSaI25WrappingValueTypeInstanceED2Ev
	.def	_ZNSaI25WrappingValueTypeInstanceED2Ev;	.scl	2;	.type	32;	.endef
	.seh_proc	_ZNSaI25WrappingValueTypeInstanceED2Ev
_ZNSaI25WrappingValueTypeInstanceED2Ev:
.LFB2525:
	.loc 2 139 7
	.cfi_startproc
	push	rbp
	.seh_pushreg	rbp
	.cfi_def_cfa_offset 16
	.cfi_offset 6, -16
	mov	rbp, rsp
	.seh_setframe	rbp, 0
	.cfi_def_cfa_register 6
	sub	rsp, 32
	.seh_stackalloc	32
	.seh_endprologue
	mov	QWORD PTR 16[rbp], rcx
.LBB8:
	.loc 2 139 30
	mov	rcx, QWORD PTR 16[rbp]
	call	_ZN9__gnu_cxx13new_allocatorI25WrappingValueTypeInstanceED2Ev
.LBE8:
	nop
	add	rsp, 32
	pop	rbp
	.cfi_restore 6
	.cfi_def_cfa 7, 8
	ret
	.cfi_endproc
.LFE2525:
	.seh_endproc
	.section	.text$_ZNSaI25WrappingValueTypeInstanceED1Ev,"x"
	.linkonce discard
	.align 2
	.globl	_ZNSaI25WrappingValueTypeInstanceED1Ev
	.def	_ZNSaI25WrappingValueTypeInstanceED1Ev;	.scl	2;	.type	32;	.endef
	.seh_proc	_ZNSaI25WrappingValueTypeInstanceED1Ev
_ZNSaI25WrappingValueTypeInstanceED1Ev:
.LFB2526:
	.loc 2 139 7
	.cfi_startproc
	push	rbp
	.seh_pushreg	rbp
	.cfi_def_cfa_offset 16
	.cfi_offset 6, -16
	mov	rbp, rsp
	.seh_setframe	rbp, 0
	.cfi_def_cfa_register 6
	sub	rsp, 32
	.seh_stackalloc	32
	.seh_endprologue
	mov	QWORD PTR 16[rbp], rcx
.LBB9:
	.loc 2 139 30
	mov	rcx, QWORD PTR 16[rbp]
	call	_ZN9__gnu_cxx13new_allocatorI25WrappingValueTypeInstanceED2Ev
.LBE9:
	nop
	add	rsp, 32
	pop	rbp
	.cfi_restore 6
	.cfi_def_cfa 7, 8
	ret
	.cfi_endproc
.LFE2526:
	.seh_endproc
	.section	.text$_ZNSt6vectorI25WrappingValueTypeInstanceSaIS0_EEC1EyRKS1_,"x"
	.linkonce discard
	.align 2
	.globl	_ZNSt6vectorI25WrappingValueTypeInstanceSaIS0_EEC1EyRKS1_
	.def	_ZNSt6vectorI25WrappingValueTypeInstanceSaIS0_EEC1EyRKS1_;	.scl	2;	.type	32;	.endef
	.seh_proc	_ZNSt6vectorI25WrappingValueTypeInstanceSaIS0_EEC1EyRKS1_
_ZNSt6vectorI25WrappingValueTypeInstanceSaIS0_EEC1EyRKS1_:
.LFB2529:
	.file 3 "D:/mingw64/lib/gcc/x86_64-w64-mingw32/8.1.0/include/c++/bits/stl_vector.h"
	.loc 3 415 7
	.cfi_startproc
	push	rbp
	.seh_pushreg	rbp
	.cfi_def_cfa_offset 16
	.cfi_offset 6, -16
	push	rbx
	.seh_pushreg	rbx
	.cfi_def_cfa_offset 24
	.cfi_offset 3, -24
	sub	rsp, 40
	.seh_stackalloc	40
	.cfi_def_cfa_offset 64
	lea	rbp, 128[rsp]
	.seh_setframe	rbp, 128
	.cfi_def_cfa 6, -64
	.seh_endprologue
	mov	QWORD PTR -64[rbp], rcx
	mov	QWORD PTR -56[rbp], rdx
	mov	QWORD PTR -48[rbp], r8
.LBB10:
	.loc 3 416 23
	mov	rax, QWORD PTR -64[rbp]
	mov	rcx, QWORD PTR -48[rbp]
	mov	rdx, QWORD PTR -56[rbp]
	mov	r8, rcx
	mov	rcx, rax
.LEHB4:
	call	_ZNSt12_Vector_baseI25WrappingValueTypeInstanceSaIS0_EEC2EyRKS1_
.LEHE4:
	.loc 3 417 9
	mov	rax, QWORD PTR -56[rbp]
	mov	rdx, rax
	mov	rcx, QWORD PTR -64[rbp]
.LEHB5:
	call	_ZNSt6vectorI25WrappingValueTypeInstanceSaIS0_EE21_M_default_initializeEy
.LEHE5:
.LBE10:
	.loc 3 417 37
	jmp	.L26
.L25:
	mov	rbx, rax
.LBB11:
	.loc 3 416 23
	mov	rax, QWORD PTR -64[rbp]
	mov	rcx, rax
	call	_ZNSt12_Vector_baseI25WrappingValueTypeInstanceSaIS0_EED2Ev
	mov	rax, rbx
	mov	rcx, rax
.LEHB6:
	call	_Unwind_Resume
	nop
.LEHE6:
.L26:
.LBE11:
	.loc 3 417 37
	add	rsp, 40
	pop	rbx
	.cfi_restore 3
	pop	rbp
	.cfi_restore 6
	.cfi_def_cfa 7, -24
	ret
	.cfi_endproc
.LFE2529:
	.seh_handler	__gxx_personality_seh0, @unwind, @except
	.seh_handlerdata
.LLSDA2529:
	.byte	0xff
	.byte	0xff
	.byte	0x1
	.uleb128 .LLSDACSE2529-.LLSDACSB2529
.LLSDACSB2529:
	.uleb128 .LEHB4-.LFB2529
	.uleb128 .LEHE4-.LEHB4
	.uleb128 0
	.uleb128 0
	.uleb128 .LEHB5-.LFB2529
	.uleb128 .LEHE5-.LEHB5
	.uleb128 .L25-.LFB2529
	.uleb128 0
	.uleb128 .LEHB6-.LFB2529
	.uleb128 .LEHE6-.LEHB6
	.uleb128 0
	.uleb128 0
.LLSDACSE2529:
	.section	.text$_ZNSt6vectorI25WrappingValueTypeInstanceSaIS0_EEC1EyRKS1_,"x"
	.linkonce discard
	.seh_endproc
	.section	.text$_ZNSt6vectorI25WrappingValueTypeInstanceSaIS0_EED1Ev,"x"
	.linkonce discard
	.align 2
	.globl	_ZNSt6vectorI25WrappingValueTypeInstanceSaIS0_EED1Ev
	.def	_ZNSt6vectorI25WrappingValueTypeInstanceSaIS0_EED1Ev;	.scl	2;	.type	32;	.endef
	.seh_proc	_ZNSt6vectorI25WrappingValueTypeInstanceSaIS0_EED1Ev
_ZNSt6vectorI25WrappingValueTypeInstanceSaIS0_EED1Ev:
.LFB2532:
	.loc 3 565 7
	.cfi_startproc
	push	rbp
	.seh_pushreg	rbp
	.cfi_def_cfa_offset 16
	.cfi_offset 6, -16
	mov	rbp, rsp
	.seh_setframe	rbp, 0
	.cfi_def_cfa_register 6
	sub	rsp, 32
	.seh_stackalloc	32
	.seh_endprologue
	mov	QWORD PTR 16[rbp], rcx
.LBB12:
	.loc 3 568 28
	mov	rax, QWORD PTR 16[rbp]
	mov	rcx, rax
	call	_ZNSt12_Vector_baseI25WrappingValueTypeInstanceSaIS0_EE19_M_get_Tp_allocatorEv
	mov	rcx, rax
	.loc 3 567 15
	mov	rax, QWORD PTR 16[rbp]
	mov	rdx, QWORD PTR 8[rax]
	mov	rax, QWORD PTR 16[rbp]
	mov	rax, QWORD PTR [rax]
	mov	r8, rcx
	mov	rcx, rax
	call	_ZSt8_DestroyIP25WrappingValueTypeInstanceS0_EvT_S2_RSaIT0_E
	.loc 3 570 7
	mov	rax, QWORD PTR 16[rbp]
	mov	rcx, rax
	call	_ZNSt12_Vector_baseI25WrappingValueTypeInstanceSaIS0_EED2Ev
.LBE12:
	nop
	add	rsp, 32
	pop	rbp
	.cfi_restore 6
	.cfi_def_cfa 7, 8
	ret
	.cfi_endproc
.LFE2532:
	.seh_handler	__gxx_personality_seh0, @unwind, @except
	.seh_handlerdata
.LLSDA2532:
	.byte	0xff
	.byte	0xff
	.byte	0x1
	.uleb128 .LLSDACSE2532-.LLSDACSB2532
.LLSDACSB2532:
.LLSDACSE2532:
	.section	.text$_ZNSt6vectorI25WrappingValueTypeInstanceSaIS0_EED1Ev,"x"
	.linkonce discard
	.seh_endproc
	.section	.text$_ZNSt6vectorI25WrappingValueTypeInstanceSaIS0_EEixEy,"x"
	.linkonce discard
	.align 2
	.globl	_ZNSt6vectorI25WrappingValueTypeInstanceSaIS0_EEixEy
	.def	_ZNSt6vectorI25WrappingValueTypeInstanceSaIS0_EEixEy;	.scl	2;	.type	32;	.endef
	.seh_proc	_ZNSt6vectorI25WrappingValueTypeInstanceSaIS0_EEixEy
_ZNSt6vectorI25WrappingValueTypeInstanceSaIS0_EEixEy:
.LFB2533:
	.loc 3 930 7
	.cfi_startproc
	push	rbp
	.seh_pushreg	rbp
	.cfi_def_cfa_offset 16
	.cfi_offset 6, -16
	mov	rbp, rsp
	.seh_setframe	rbp, 0
	.cfi_def_cfa_register 6
	.seh_endprologue
	mov	QWORD PTR 16[rbp], rcx
	mov	QWORD PTR 24[rbp], rdx
	.loc 3 933 25
	mov	rax, QWORD PTR 16[rbp]
	mov	rdx, QWORD PTR [rax]
	.loc 3 933 34
	mov	rax, QWORD PTR 24[rbp]
	sal	rax, 3
	.loc 3 933 39
	add	rax, rdx
	.loc 3 934 7
	pop	rbp
	.cfi_restore 6
	.cfi_def_cfa 7, 8
	ret
	.cfi_endproc
.LFE2533:
	.seh_endproc
	.section	.text$_ZNSt6vectorI25WrappingValueTypeInstanceSaIS0_EE4dataEv,"x"
	.linkonce discard
	.align 2
	.globl	_ZNSt6vectorI25WrappingValueTypeInstanceSaIS0_EE4dataEv
	.def	_ZNSt6vectorI25WrappingValueTypeInstanceSaIS0_EE4dataEv;	.scl	2;	.type	32;	.endef
	.seh_proc	_ZNSt6vectorI25WrappingValueTypeInstanceSaIS0_EE4dataEv
_ZNSt6vectorI25WrappingValueTypeInstanceSaIS0_EE4dataEv:
.LFB2534:
	.loc 3 1055 7
	.cfi_startproc
	push	rbp
	.seh_pushreg	rbp
	.cfi_def_cfa_offset 16
	.cfi_offset 6, -16
	mov	rbp, rsp
	.seh_setframe	rbp, 0
	.cfi_def_cfa_register 6
	sub	rsp, 32
	.seh_stackalloc	32
	.seh_endprologue
	mov	QWORD PTR 16[rbp], rcx
	.loc 3 1056 50
	mov	rax, QWORD PTR 16[rbp]
	mov	rax, QWORD PTR [rax]
	mov	rdx, rax
	mov	rcx, QWORD PTR 16[rbp]
	call	_ZNKSt6vectorI25WrappingValueTypeInstanceSaIS0_EE11_M_data_ptrIS0_EEPT_S5_
	.loc 3 1056 53
	add	rsp, 32
	pop	rbp
	.cfi_restore 6
	.cfi_def_cfa 7, 8
	ret
	.cfi_endproc
.LFE2534:
	.seh_endproc
	.section	.text$_ZN9__gnu_cxx13new_allocatorI25WrappingValueTypeInstanceEC2Ev,"x"
	.linkonce discard
	.align 2
	.globl	_ZN9__gnu_cxx13new_allocatorI25WrappingValueTypeInstanceEC2Ev
	.def	_ZN9__gnu_cxx13new_allocatorI25WrappingValueTypeInstanceEC2Ev;	.scl	2;	.type	32;	.endef
	.seh_proc	_ZN9__gnu_cxx13new_allocatorI25WrappingValueTypeInstanceEC2Ev
_ZN9__gnu_cxx13new_allocatorI25WrappingValueTypeInstanceEC2Ev:
.LFB2647:
	.file 4 "D:/mingw64/lib/gcc/x86_64-w64-mingw32/8.1.0/include/c++/ext/new_allocator.h"
	.loc 4 79 7
	.cfi_startproc
	push	rbp
	.seh_pushreg	rbp
	.cfi_def_cfa_offset 16
	.cfi_offset 6, -16
	mov	rbp, rsp
	.seh_setframe	rbp, 0
	.cfi_def_cfa_register 6
	.seh_endprologue
	mov	QWORD PTR 16[rbp], rcx
	.loc 4 79 47
	nop
	pop	rbp
	.cfi_restore 6
	.cfi_def_cfa 7, 8
	ret
	.cfi_endproc
.LFE2647:
	.seh_endproc
	.section	.text$_ZN9__gnu_cxx13new_allocatorI25WrappingValueTypeInstanceED2Ev,"x"
	.linkonce discard
	.align 2
	.globl	_ZN9__gnu_cxx13new_allocatorI25WrappingValueTypeInstanceED2Ev
	.def	_ZN9__gnu_cxx13new_allocatorI25WrappingValueTypeInstanceED2Ev;	.scl	2;	.type	32;	.endef
	.seh_proc	_ZN9__gnu_cxx13new_allocatorI25WrappingValueTypeInstanceED2Ev
_ZN9__gnu_cxx13new_allocatorI25WrappingValueTypeInstanceED2Ev:
.LFB2650:
	.loc 4 86 7
	.cfi_startproc
	push	rbp
	.seh_pushreg	rbp
	.cfi_def_cfa_offset 16
	.cfi_offset 6, -16
	mov	rbp, rsp
	.seh_setframe	rbp, 0
	.cfi_def_cfa_register 6
	.seh_endprologue
	mov	QWORD PTR 16[rbp], rcx
	.loc 4 86 48
	nop
	pop	rbp
	.cfi_restore 6
	.cfi_def_cfa 7, 8
	ret
	.cfi_endproc
.LFE2650:
	.seh_endproc
	.section	.text$_ZNSt12_Vector_baseI25WrappingValueTypeInstanceSaIS0_EE12_Vector_implD1Ev,"x"
	.linkonce discard
	.align 2
	.globl	_ZNSt12_Vector_baseI25WrappingValueTypeInstanceSaIS0_EE12_Vector_implD1Ev
	.def	_ZNSt12_Vector_baseI25WrappingValueTypeInstanceSaIS0_EE12_Vector_implD1Ev;	.scl	2;	.type	32;	.endef
	.seh_proc	_ZNSt12_Vector_baseI25WrappingValueTypeInstanceSaIS0_EE12_Vector_implD1Ev
_ZNSt12_Vector_baseI25WrappingValueTypeInstanceSaIS0_EE12_Vector_implD1Ev:
.LFB2655:
	.loc 3 88 14
	.cfi_startproc
	push	rbp
	.seh_pushreg	rbp
	.cfi_def_cfa_offset 16
	.cfi_offset 6, -16
	mov	rbp, rsp
	.seh_setframe	rbp, 0
	.cfi_def_cfa_register 6
	sub	rsp, 32
	.seh_stackalloc	32
	.seh_endprologue
	mov	QWORD PTR 16[rbp], rcx
.LBB13:
	.loc 3 88 14
	mov	rcx, QWORD PTR 16[rbp]
	call	_ZNSaI25WrappingValueTypeInstanceED2Ev
.LBE13:
	nop
	add	rsp, 32
	pop	rbp
	.cfi_restore 6
	.cfi_def_cfa 7, 8
	ret
	.cfi_endproc
.LFE2655:
	.seh_endproc
	.section	.text$_ZNSt12_Vector_baseI25WrappingValueTypeInstanceSaIS0_EEC2EyRKS1_,"x"
	.linkonce discard
	.align 2
	.globl	_ZNSt12_Vector_baseI25WrappingValueTypeInstanceSaIS0_EEC2EyRKS1_
	.def	_ZNSt12_Vector_baseI25WrappingValueTypeInstanceSaIS0_EEC2EyRKS1_;	.scl	2;	.type	32;	.endef
	.seh_proc	_ZNSt12_Vector_baseI25WrappingValueTypeInstanceSaIS0_EEC2EyRKS1_
_ZNSt12_Vector_baseI25WrappingValueTypeInstanceSaIS0_EEC2EyRKS1_:
.LFB2656:
	.loc 3 258 7
	.cfi_startproc
	push	rbp
	.seh_pushreg	rbp
	.cfi_def_cfa_offset 16
	.cfi_offset 6, -16
	push	rbx
	.seh_pushreg	rbx
	.cfi_def_cfa_offset 24
	.cfi_offset 3, -24
	sub	rsp, 40
	.seh_stackalloc	40
	.cfi_def_cfa_offset 64
	lea	rbp, 128[rsp]
	.seh_setframe	rbp, 128
	.cfi_def_cfa 6, -64
	.seh_endprologue
	mov	QWORD PTR -64[rbp], rcx
	mov	QWORD PTR -56[rbp], rdx
	mov	QWORD PTR -48[rbp], r8
.LBB14:
	.loc 3 259 20
	mov	rax, QWORD PTR -64[rbp]
	mov	rdx, QWORD PTR -48[rbp]
	mov	rcx, rax
	call	_ZNSt12_Vector_baseI25WrappingValueTypeInstanceSaIS0_EE12_Vector_implC1ERKS1_
	.loc 3 260 9
	mov	rax, QWORD PTR -56[rbp]
	mov	rdx, rax
	mov	rcx, QWORD PTR -64[rbp]
.LEHB7:
	call	_ZNSt12_Vector_baseI25WrappingValueTypeInstanceSaIS0_EE17_M_create_storageEy
.LEHE7:
.LBE14:
	.loc 3 260 33
	jmp	.L38
.L37:
	mov	rbx, rax
.LBB15:
	.loc 3 259 20
	mov	rax, QWORD PTR -64[rbp]
	mov	rcx, rax
	call	_ZNSt12_Vector_baseI25WrappingValueTypeInstanceSaIS0_EE12_Vector_implD1Ev
	mov	rax, rbx
	mov	rcx, rax
.LEHB8:
	call	_Unwind_Resume
	nop
.LEHE8:
.L38:
.LBE15:
	.loc 3 260 33
	add	rsp, 40
	pop	rbx
	.cfi_restore 3
	pop	rbp
	.cfi_restore 6
	.cfi_def_cfa 7, -24
	ret
	.cfi_endproc
.LFE2656:
	.seh_handler	__gxx_personality_seh0, @unwind, @except
	.seh_handlerdata
.LLSDA2656:
	.byte	0xff
	.byte	0xff
	.byte	0x1
	.uleb128 .LLSDACSE2656-.LLSDACSB2656
.LLSDACSB2656:
	.uleb128 .LEHB7-.LFB2656
	.uleb128 .LEHE7-.LEHB7
	.uleb128 .L37-.LFB2656
	.uleb128 0
	.uleb128 .LEHB8-.LFB2656
	.uleb128 .LEHE8-.LEHB8
	.uleb128 0
	.uleb128 0
.LLSDACSE2656:
	.section	.text$_ZNSt12_Vector_baseI25WrappingValueTypeInstanceSaIS0_EEC2EyRKS1_,"x"
	.linkonce discard
	.seh_endproc
	.section	.text$_ZNSt12_Vector_baseI25WrappingValueTypeInstanceSaIS0_EED2Ev,"x"
	.linkonce discard
	.align 2
	.globl	_ZNSt12_Vector_baseI25WrappingValueTypeInstanceSaIS0_EED2Ev
	.def	_ZNSt12_Vector_baseI25WrappingValueTypeInstanceSaIS0_EED2Ev;	.scl	2;	.type	32;	.endef
	.seh_proc	_ZNSt12_Vector_baseI25WrappingValueTypeInstanceSaIS0_EED2Ev
_ZNSt12_Vector_baseI25WrappingValueTypeInstanceSaIS0_EED2Ev:
.LFB2659:
	.loc 3 283 7
	.cfi_startproc
	push	rbp
	.seh_pushreg	rbp
	.cfi_def_cfa_offset 16
	.cfi_offset 6, -16
	mov	rbp, rsp
	.seh_setframe	rbp, 0
	.cfi_def_cfa_register 6
	sub	rsp, 32
	.seh_stackalloc	32
	.seh_endprologue
	mov	QWORD PTR 16[rbp], rcx
.LBB16:
	.loc 3 286 17
	mov	rax, QWORD PTR 16[rbp]
	mov	rdx, QWORD PTR 16[rax]
	.loc 3 286 45
	mov	rax, QWORD PTR 16[rbp]
	mov	rax, QWORD PTR [rax]
	.loc 3 286 35
	sub	rdx, rax
	mov	rax, rdx
	sar	rax, 3
	.loc 3 285 2
	mov	rdx, rax
	mov	rax, QWORD PTR 16[rbp]
	mov	rax, QWORD PTR [rax]
	mov	r8, rdx
	mov	rdx, rax
	mov	rcx, QWORD PTR 16[rbp]
	call	_ZNSt12_Vector_baseI25WrappingValueTypeInstanceSaIS0_EE13_M_deallocateEPS0_y
	.loc 3 287 7
	mov	rax, QWORD PTR 16[rbp]
	mov	rcx, rax
	call	_ZNSt12_Vector_baseI25WrappingValueTypeInstanceSaIS0_EE12_Vector_implD1Ev
.LBE16:
	nop
	add	rsp, 32
	pop	rbp
	.cfi_restore 6
	.cfi_def_cfa 7, 8
	ret
	.cfi_endproc
.LFE2659:
	.seh_handler	__gxx_personality_seh0, @unwind, @except
	.seh_handlerdata
.LLSDA2659:
	.byte	0xff
	.byte	0xff
	.byte	0x1
	.uleb128 .LLSDACSE2659-.LLSDACSB2659
.LLSDACSB2659:
.LLSDACSE2659:
	.section	.text$_ZNSt12_Vector_baseI25WrappingValueTypeInstanceSaIS0_EED2Ev,"x"
	.linkonce discard
	.seh_endproc
	.section	.text$_ZNSt6vectorI25WrappingValueTypeInstanceSaIS0_EE21_M_default_initializeEy,"x"
	.linkonce discard
	.align 2
	.globl	_ZNSt6vectorI25WrappingValueTypeInstanceSaIS0_EE21_M_default_initializeEy
	.def	_ZNSt6vectorI25WrappingValueTypeInstanceSaIS0_EE21_M_default_initializeEy;	.scl	2;	.type	32;	.endef
	.seh_proc	_ZNSt6vectorI25WrappingValueTypeInstanceSaIS0_EE21_M_default_initializeEy
_ZNSt6vectorI25WrappingValueTypeInstanceSaIS0_EE21_M_default_initializeEy:
.LFB2661:
	.loc 3 1482 7
	.cfi_startproc
	push	rbp
	.seh_pushreg	rbp
	.cfi_def_cfa_offset 16
	.cfi_offset 6, -16
	mov	rbp, rsp
	.seh_setframe	rbp, 0
	.cfi_def_cfa_register 6
	sub	rsp, 32
	.seh_stackalloc	32
	.seh_endprologue
	mov	QWORD PTR 16[rbp], rcx
	mov	QWORD PTR 24[rbp], rdx
	.loc 3 1486 28
	mov	rax, QWORD PTR 16[rbp]
	mov	rcx, rax
	call	_ZNSt12_Vector_baseI25WrappingValueTypeInstanceSaIS0_EE19_M_get_Tp_allocatorEv
	mov	rcx, rax
	.loc 3 1485 36
	mov	rax, QWORD PTR 16[rbp]
	mov	rax, QWORD PTR [rax]
	mov	rdx, QWORD PTR 24[rbp]
	mov	r8, rcx
	mov	rcx, rax
	call	_ZSt27__uninitialized_default_n_aIP25WrappingValueTypeInstanceyS0_ET_S2_T0_RSaIT1_E
	mov	rdx, rax
	.loc 3 1484 2
	mov	rax, QWORD PTR 16[rbp]
	mov	QWORD PTR 8[rax], rdx
	.loc 3 1487 7
	nop
	add	rsp, 32
	pop	rbp
	.cfi_restore 6
	.cfi_def_cfa 7, 8
	ret
	.cfi_endproc
.LFE2661:
	.seh_endproc
	.section	.text$_ZNSt12_Vector_baseI25WrappingValueTypeInstanceSaIS0_EE19_M_get_Tp_allocatorEv,"x"
	.linkonce discard
	.align 2
	.globl	_ZNSt12_Vector_baseI25WrappingValueTypeInstanceSaIS0_EE19_M_get_Tp_allocatorEv
	.def	_ZNSt12_Vector_baseI25WrappingValueTypeInstanceSaIS0_EE19_M_get_Tp_allocatorEv;	.scl	2;	.type	32;	.endef
	.seh_proc	_ZNSt12_Vector_baseI25WrappingValueTypeInstanceSaIS0_EE19_M_get_Tp_allocatorEv
_ZNSt12_Vector_baseI25WrappingValueTypeInstanceSaIS0_EE19_M_get_Tp_allocatorEv:
.LFB2662:
	.loc 3 237 7
	.cfi_startproc
	push	rbp
	.seh_pushreg	rbp
	.cfi_def_cfa_offset 16
	.cfi_offset 6, -16
	mov	rbp, rsp
	.seh_setframe	rbp, 0
	.cfi_def_cfa_register 6
	.seh_endprologue
	mov	QWORD PTR 16[rbp], rcx
	.loc 3 238 60
	mov	rax, QWORD PTR 16[rbp]
	.loc 3 238 63
	pop	rbp
	.cfi_restore 6
	.cfi_def_cfa 7, 8
	ret
	.cfi_endproc
.LFE2662:
	.seh_endproc
	.section	.text$_ZSt8_DestroyIP25WrappingValueTypeInstanceS0_EvT_S2_RSaIT0_E,"x"
	.linkonce discard
	.globl	_ZSt8_DestroyIP25WrappingValueTypeInstanceS0_EvT_S2_RSaIT0_E
	.def	_ZSt8_DestroyIP25WrappingValueTypeInstanceS0_EvT_S2_RSaIT0_E;	.scl	2;	.type	32;	.endef
	.seh_proc	_ZSt8_DestroyIP25WrappingValueTypeInstanceS0_EvT_S2_RSaIT0_E
_ZSt8_DestroyIP25WrappingValueTypeInstanceS0_EvT_S2_RSaIT0_E:
.LFB2663:
	.file 5 "D:/mingw64/lib/gcc/x86_64-w64-mingw32/8.1.0/include/c++/bits/stl_construct.h"
	.loc 5 203 5
	.cfi_startproc
	push	rbp
	.seh_pushreg	rbp
	.cfi_def_cfa_offset 16
	.cfi_offset 6, -16
	mov	rbp, rsp
	.seh_setframe	rbp, 0
	.cfi_def_cfa_register 6
	sub	rsp, 32
	.seh_stackalloc	32
	.seh_endprologue
	mov	QWORD PTR 16[rbp], rcx
	mov	QWORD PTR 24[rbp], rdx
	mov	QWORD PTR 32[rbp], r8
	.loc 5 206 15
	mov	rax, QWORD PTR 24[rbp]
	mov	rdx, rax
	mov	rcx, QWORD PTR 16[rbp]
	call	_ZSt8_DestroyIP25WrappingValueTypeInstanceEvT_S2_
	.loc 5 207 5
	nop
	add	rsp, 32
	pop	rbp
	.cfi_restore 6
	.cfi_def_cfa 7, 8
	ret
	.cfi_endproc
.LFE2663:
	.seh_endproc
	.section	.text$_ZNKSt6vectorI25WrappingValueTypeInstanceSaIS0_EE11_M_data_ptrIS0_EEPT_S5_,"x"
	.linkonce discard
	.align 2
	.globl	_ZNKSt6vectorI25WrappingValueTypeInstanceSaIS0_EE11_M_data_ptrIS0_EEPT_S5_
	.def	_ZNKSt6vectorI25WrappingValueTypeInstanceSaIS0_EE11_M_data_ptrIS0_EEPT_S5_;	.scl	2;	.type	32;	.endef
	.seh_proc	_ZNKSt6vectorI25WrappingValueTypeInstanceSaIS0_EE11_M_data_ptrIS0_EEPT_S5_
_ZNKSt6vectorI25WrappingValueTypeInstanceSaIS0_EE11_M_data_ptrIS0_EEPT_S5_:
.LFB2664:
	.loc 3 1700 2
	.cfi_startproc
	push	rbp
	.seh_pushreg	rbp
	.cfi_def_cfa_offset 16
	.cfi_offset 6, -16
	mov	rbp, rsp
	.seh_setframe	rbp, 0
	.cfi_def_cfa_register 6
	.seh_endprologue
	mov	QWORD PTR 16[rbp], rcx
	mov	QWORD PTR 24[rbp], rdx
	.loc 3 1701 11
	mov	rax, QWORD PTR 24[rbp]
	.loc 3 1701 18
	pop	rbp
	.cfi_restore 6
	.cfi_def_cfa 7, 8
	ret
	.cfi_endproc
.LFE2664:
	.seh_endproc
	.section	.text$_ZNSt12_Vector_baseI25WrappingValueTypeInstanceSaIS0_EE12_Vector_implC1ERKS1_,"x"
	.linkonce discard
	.align 2
	.globl	_ZNSt12_Vector_baseI25WrappingValueTypeInstanceSaIS0_EE12_Vector_implC1ERKS1_
	.def	_ZNSt12_Vector_baseI25WrappingValueTypeInstanceSaIS0_EE12_Vector_implC1ERKS1_;	.scl	2;	.type	32;	.endef
	.seh_proc	_ZNSt12_Vector_baseI25WrappingValueTypeInstanceSaIS0_EE12_Vector_implC1ERKS1_
_ZNSt12_Vector_baseI25WrappingValueTypeInstanceSaIS0_EE12_Vector_implC1ERKS1_:
.LFB2703:
	.loc 3 99 2
	.cfi_startproc
	push	rbp
	.seh_pushreg	rbp
	.cfi_def_cfa_offset 16
	.cfi_offset 6, -16
	mov	rbp, rsp
	.seh_setframe	rbp, 0
	.cfi_def_cfa_register 6
	sub	rsp, 32
	.seh_stackalloc	32
	.seh_endprologue
	mov	QWORD PTR 16[rbp], rcx
	mov	QWORD PTR 24[rbp], rdx
.LBB17:
	.loc 3 100 68
	mov	rax, QWORD PTR 24[rbp]
	mov	rdx, rax
	mov	rcx, QWORD PTR 16[rbp]
	call	_ZNSaI25WrappingValueTypeInstanceEC2ERKS0_
	mov	rax, QWORD PTR 16[rbp]
	mov	QWORD PTR [rax], 0
	mov	rax, QWORD PTR 16[rbp]
	mov	QWORD PTR 8[rax], 0
	mov	rax, QWORD PTR 16[rbp]
	mov	QWORD PTR 16[rax], 0
.LBE17:
	.loc 3 101 4
	nop
	add	rsp, 32
	pop	rbp
	.cfi_restore 6
	.cfi_def_cfa 7, 8
	ret
	.cfi_endproc
.LFE2703:
	.seh_endproc
	.section	.text$_ZNSt12_Vector_baseI25WrappingValueTypeInstanceSaIS0_EE17_M_create_storageEy,"x"
	.linkonce discard
	.align 2
	.globl	_ZNSt12_Vector_baseI25WrappingValueTypeInstanceSaIS0_EE17_M_create_storageEy
	.def	_ZNSt12_Vector_baseI25WrappingValueTypeInstanceSaIS0_EE17_M_create_storageEy;	.scl	2;	.type	32;	.endef
	.seh_proc	_ZNSt12_Vector_baseI25WrappingValueTypeInstanceSaIS0_EE17_M_create_storageEy
_ZNSt12_Vector_baseI25WrappingValueTypeInstanceSaIS0_EE17_M_create_storageEy:
.LFB2704:
	.loc 3 309 7
	.cfi_startproc
	push	rbp
	.seh_pushreg	rbp
	.cfi_def_cfa_offset 16
	.cfi_offset 6, -16
	mov	rbp, rsp
	.seh_setframe	rbp, 0
	.cfi_def_cfa_register 6
	sub	rsp, 32
	.seh_stackalloc	32
	.seh_endprologue
	mov	QWORD PTR 16[rbp], rcx
	mov	QWORD PTR 24[rbp], rdx
	.loc 3 311 25
	mov	rax, QWORD PTR 24[rbp]
	mov	rdx, rax
	mov	rcx, QWORD PTR 16[rbp]
	call	_ZNSt12_Vector_baseI25WrappingValueTypeInstanceSaIS0_EE11_M_allocateEy
	mov	rdx, rax
	.loc 3 311 2
	mov	rax, QWORD PTR 16[rbp]
	mov	QWORD PTR [rax], rdx
	.loc 3 312 42
	mov	rax, QWORD PTR 16[rbp]
	mov	rdx, QWORD PTR [rax]
	.loc 3 312 2
	mov	rax, QWORD PTR 16[rbp]
	mov	QWORD PTR 8[rax], rdx
	.loc 3 313 50
	mov	rax, QWORD PTR 16[rbp]
	mov	rdx, QWORD PTR [rax]
	.loc 3 313 59
	mov	rax, QWORD PTR 24[rbp]
	sal	rax, 3
	add	rdx, rax
	.loc 3 313 2
	mov	rax, QWORD PTR 16[rbp]
	mov	QWORD PTR 16[rax], rdx
	.loc 3 314 7
	nop
	add	rsp, 32
	pop	rbp
	.cfi_restore 6
	.cfi_def_cfa 7, 8
	ret
	.cfi_endproc
.LFE2704:
	.seh_endproc
	.section	.text$_ZNSt12_Vector_baseI25WrappingValueTypeInstanceSaIS0_EE13_M_deallocateEPS0_y,"x"
	.linkonce discard
	.align 2
	.globl	_ZNSt12_Vector_baseI25WrappingValueTypeInstanceSaIS0_EE13_M_deallocateEPS0_y
	.def	_ZNSt12_Vector_baseI25WrappingValueTypeInstanceSaIS0_EE13_M_deallocateEPS0_y;	.scl	2;	.type	32;	.endef
	.seh_proc	_ZNSt12_Vector_baseI25WrappingValueTypeInstanceSaIS0_EE13_M_deallocateEPS0_y
_ZNSt12_Vector_baseI25WrappingValueTypeInstanceSaIS0_EE13_M_deallocateEPS0_y:
.LFB2705:
	.loc 3 300 7
	.cfi_startproc
	push	rbp
	.seh_pushreg	rbp
	.cfi_def_cfa_offset 16
	.cfi_offset 6, -16
	mov	rbp, rsp
	.seh_setframe	rbp, 0
	.cfi_def_cfa_register 6
	sub	rsp, 32
	.seh_stackalloc	32
	.seh_endprologue
	mov	QWORD PTR 16[rbp], rcx
	mov	QWORD PTR 24[rbp], rdx
	mov	QWORD PTR 32[rbp], r8
	.loc 3 303 2
	cmp	QWORD PTR 24[rbp], 0
	je	.L50
	.loc 3 304 20
	mov	rax, QWORD PTR 16[rbp]
	.loc 3 304 19
	mov	rcx, QWORD PTR 32[rbp]
	mov	rdx, QWORD PTR 24[rbp]
	mov	r8, rcx
	mov	rcx, rax
	call	_ZNSt16allocator_traitsISaI25WrappingValueTypeInstanceEE10deallocateERS1_PS0_y
.L50:
	.loc 3 305 7
	nop
	add	rsp, 32
	pop	rbp
	.cfi_restore 6
	.cfi_def_cfa 7, 8
	ret
	.cfi_endproc
.LFE2705:
	.seh_endproc
	.section	.text$_ZSt27__uninitialized_default_n_aIP25WrappingValueTypeInstanceyS0_ET_S2_T0_RSaIT1_E,"x"
	.linkonce discard
	.globl	_ZSt27__uninitialized_default_n_aIP25WrappingValueTypeInstanceyS0_ET_S2_T0_RSaIT1_E
	.def	_ZSt27__uninitialized_default_n_aIP25WrappingValueTypeInstanceyS0_ET_S2_T0_RSaIT1_E;	.scl	2;	.type	32;	.endef
	.seh_proc	_ZSt27__uninitialized_default_n_aIP25WrappingValueTypeInstanceyS0_ET_S2_T0_RSaIT1_E
_ZSt27__uninitialized_default_n_aIP25WrappingValueTypeInstanceyS0_ET_S2_T0_RSaIT1_E:
.LFB2706:
	.file 6 "D:/mingw64/lib/gcc/x86_64-w64-mingw32/8.1.0/include/c++/bits/stl_uninitialized.h"
	.loc 6 643 5
	.cfi_startproc
	push	rbp
	.seh_pushreg	rbp
	.cfi_def_cfa_offset 16
	.cfi_offset 6, -16
	mov	rbp, rsp
	.seh_setframe	rbp, 0
	.cfi_def_cfa_register 6
	sub	rsp, 32
	.seh_stackalloc	32
	.seh_endprologue
	mov	QWORD PTR 16[rbp], rcx
	mov	QWORD PTR 24[rbp], rdx
	mov	QWORD PTR 32[rbp], r8
	.loc 6 645 44
	mov	rax, QWORD PTR 24[rbp]
	mov	rdx, rax
	mov	rcx, QWORD PTR 16[rbp]
	call	_ZSt25__uninitialized_default_nIP25WrappingValueTypeInstanceyET_S2_T0_
	.loc 6 645 60
	add	rsp, 32
	pop	rbp
	.cfi_restore 6
	.cfi_def_cfa 7, 8
	ret
	.cfi_endproc
.LFE2706:
	.seh_endproc
	.section	.text$_ZSt8_DestroyIP25WrappingValueTypeInstanceEvT_S2_,"x"
	.linkonce discard
	.globl	_ZSt8_DestroyIP25WrappingValueTypeInstanceEvT_S2_
	.def	_ZSt8_DestroyIP25WrappingValueTypeInstanceEvT_S2_;	.scl	2;	.type	32;	.endef
	.seh_proc	_ZSt8_DestroyIP25WrappingValueTypeInstanceEvT_S2_
_ZSt8_DestroyIP25WrappingValueTypeInstanceEvT_S2_:
.LFB2707:
	.loc 5 127 5
	.cfi_startproc
	push	rbp
	.seh_pushreg	rbp
	.cfi_def_cfa_offset 16
	.cfi_offset 6, -16
	mov	rbp, rsp
	.seh_setframe	rbp, 0
	.cfi_def_cfa_register 6
	sub	rsp, 32
	.seh_stackalloc	32
	.seh_endprologue
	mov	QWORD PTR 16[rbp], rcx
	mov	QWORD PTR 24[rbp], rdx
	.loc 5 137 11
	mov	rax, QWORD PTR 24[rbp]
	mov	rdx, rax
	mov	rcx, QWORD PTR 16[rbp]
	call	_ZNSt12_Destroy_auxILb1EE9__destroyIP25WrappingValueTypeInstanceEEvT_S4_
	.loc 5 138 5
	nop
	add	rsp, 32
	pop	rbp
	.cfi_restore 6
	.cfi_def_cfa 7, 8
	ret
	.cfi_endproc
.LFE2707:
	.seh_endproc
	.section	.text$_ZNSaI25WrappingValueTypeInstanceEC2ERKS0_,"x"
	.linkonce discard
	.align 2
	.globl	_ZNSaI25WrappingValueTypeInstanceEC2ERKS0_
	.def	_ZNSaI25WrappingValueTypeInstanceEC2ERKS0_;	.scl	2;	.type	32;	.endef
	.seh_proc	_ZNSaI25WrappingValueTypeInstanceEC2ERKS0_
_ZNSaI25WrappingValueTypeInstanceEC2ERKS0_:
.LFB2743:
	.loc 2 133 7
	.cfi_startproc
	push	rbp
	.seh_pushreg	rbp
	.cfi_def_cfa_offset 16
	.cfi_offset 6, -16
	mov	rbp, rsp
	.seh_setframe	rbp, 0
	.cfi_def_cfa_register 6
	sub	rsp, 32
	.seh_stackalloc	32
	.seh_endprologue
	mov	QWORD PTR 16[rbp], rcx
	mov	QWORD PTR 24[rbp], rdx
.LBB18:
	.loc 2 134 34
	mov	rax, QWORD PTR 24[rbp]
	mov	rdx, rax
	mov	rcx, QWORD PTR 16[rbp]
	call	_ZN9__gnu_cxx13new_allocatorI25WrappingValueTypeInstanceEC2ERKS2_
.LBE18:
	.loc 2 134 38
	nop
	add	rsp, 32
	pop	rbp
	.cfi_restore 6
	.cfi_def_cfa 7, 8
	ret
	.cfi_endproc
.LFE2743:
	.seh_endproc
	.section	.text$_ZNSt12_Vector_baseI25WrappingValueTypeInstanceSaIS0_EE11_M_allocateEy,"x"
	.linkonce discard
	.align 2
	.globl	_ZNSt12_Vector_baseI25WrappingValueTypeInstanceSaIS0_EE11_M_allocateEy
	.def	_ZNSt12_Vector_baseI25WrappingValueTypeInstanceSaIS0_EE11_M_allocateEy;	.scl	2;	.type	32;	.endef
	.seh_proc	_ZNSt12_Vector_baseI25WrappingValueTypeInstanceSaIS0_EE11_M_allocateEy
_ZNSt12_Vector_baseI25WrappingValueTypeInstanceSaIS0_EE11_M_allocateEy:
.LFB2745:
	.loc 3 293 7
	.cfi_startproc
	push	rbp
	.seh_pushreg	rbp
	.cfi_def_cfa_offset 16
	.cfi_offset 6, -16
	mov	rbp, rsp
	.seh_setframe	rbp, 0
	.cfi_def_cfa_register 6
	sub	rsp, 32
	.seh_stackalloc	32
	.seh_endprologue
	mov	QWORD PTR 16[rbp], rcx
	mov	QWORD PTR 24[rbp], rdx
	.loc 3 296 18
	cmp	QWORD PTR 24[rbp], 0
	je	.L56
	.loc 3 296 34 discriminator 1
	mov	rax, QWORD PTR 16[rbp]
	.loc 3 296 33 discriminator 1
	mov	rdx, QWORD PTR 24[rbp]
	mov	rcx, rax
	call	_ZNSt16allocator_traitsISaI25WrappingValueTypeInstanceEE8allocateERS1_y
	.loc 3 296 58 discriminator 1
	jmp	.L58
.L56:
	.loc 3 296 18 discriminator 2
	mov	eax, 0
.L58:
	.loc 3 297 7 discriminator 5
	add	rsp, 32
	pop	rbp
	.cfi_restore 6
	.cfi_def_cfa 7, 8
	ret
	.cfi_endproc
.LFE2745:
	.seh_endproc
	.section	.text$_ZNSt16allocator_traitsISaI25WrappingValueTypeInstanceEE10deallocateERS1_PS0_y,"x"
	.linkonce discard
	.globl	_ZNSt16allocator_traitsISaI25WrappingValueTypeInstanceEE10deallocateERS1_PS0_y
	.def	_ZNSt16allocator_traitsISaI25WrappingValueTypeInstanceEE10deallocateERS1_PS0_y;	.scl	2;	.type	32;	.endef
	.seh_proc	_ZNSt16allocator_traitsISaI25WrappingValueTypeInstanceEE10deallocateERS1_PS0_y
_ZNSt16allocator_traitsISaI25WrappingValueTypeInstanceEE10deallocateERS1_PS0_y:
.LFB2746:
	.file 7 "D:/mingw64/lib/gcc/x86_64-w64-mingw32/8.1.0/include/c++/bits/alloc_traits.h"
	.loc 7 461 7
	.cfi_startproc
	push	rbp
	.seh_pushreg	rbp
	.cfi_def_cfa_offset 16
	.cfi_offset 6, -16
	mov	rbp, rsp
	.seh_setframe	rbp, 0
	.cfi_def_cfa_register 6
	sub	rsp, 32
	.seh_stackalloc	32
	.seh_endprologue
	mov	QWORD PTR 16[rbp], rcx
	mov	QWORD PTR 24[rbp], rdx
	mov	QWORD PTR 32[rbp], r8
	.loc 7 462 9
	mov	rdx, QWORD PTR 32[rbp]
	mov	rax, QWORD PTR 24[rbp]
	mov	r8, rdx
	mov	rdx, rax
	mov	rcx, QWORD PTR 16[rbp]
	call	_ZN9__gnu_cxx13new_allocatorI25WrappingValueTypeInstanceE10deallocateEPS1_y
	.loc 7 462 35
	nop
	add	rsp, 32
	pop	rbp
	.cfi_restore 6
	.cfi_def_cfa 7, 8
	ret
	.cfi_endproc
.LFE2746:
	.seh_endproc
	.section	.text$_ZSt25__uninitialized_default_nIP25WrappingValueTypeInstanceyET_S2_T0_,"x"
	.linkonce discard
	.globl	_ZSt25__uninitialized_default_nIP25WrappingValueTypeInstanceyET_S2_T0_
	.def	_ZSt25__uninitialized_default_nIP25WrappingValueTypeInstanceyET_S2_T0_;	.scl	2;	.type	32;	.endef
	.seh_proc	_ZSt25__uninitialized_default_nIP25WrappingValueTypeInstanceyET_S2_T0_
_ZSt25__uninitialized_default_nIP25WrappingValueTypeInstanceyET_S2_T0_:
.LFB2747:
	.loc 6 574 5
	.cfi_startproc
	push	rbp
	.seh_pushreg	rbp
	.cfi_def_cfa_offset 16
	.cfi_offset 6, -16
	mov	rbp, rsp
	.seh_setframe	rbp, 0
	.cfi_def_cfa_register 6
	sub	rsp, 48
	.seh_stackalloc	48
	.seh_endprologue
	mov	QWORD PTR 16[rbp], rcx
	mov	QWORD PTR 24[rbp], rdx
	.loc 6 579 18
	mov	BYTE PTR -1[rbp], 1
	.loc 6 583 20
	mov	rax, QWORD PTR 24[rbp]
	mov	rdx, rax
	mov	rcx, QWORD PTR 16[rbp]
	call	_ZNSt27__uninitialized_default_n_1ILb1EE18__uninit_default_nIP25WrappingValueTypeInstanceyEET_S4_T0_
	.loc 6 584 5
	add	rsp, 48
	pop	rbp
	.cfi_restore 6
	.cfi_def_cfa 7, 8
	ret
	.cfi_endproc
.LFE2747:
	.seh_endproc
	.section	.text$_ZNSt12_Destroy_auxILb1EE9__destroyIP25WrappingValueTypeInstanceEEvT_S4_,"x"
	.linkonce discard
	.globl	_ZNSt12_Destroy_auxILb1EE9__destroyIP25WrappingValueTypeInstanceEEvT_S4_
	.def	_ZNSt12_Destroy_auxILb1EE9__destroyIP25WrappingValueTypeInstanceEEvT_S4_;	.scl	2;	.type	32;	.endef
	.seh_proc	_ZNSt12_Destroy_auxILb1EE9__destroyIP25WrappingValueTypeInstanceEEvT_S4_
_ZNSt12_Destroy_auxILb1EE9__destroyIP25WrappingValueTypeInstanceEEvT_S4_:
.LFB2748:
	.loc 5 117 9
	.cfi_startproc
	push	rbp
	.seh_pushreg	rbp
	.cfi_def_cfa_offset 16
	.cfi_offset 6, -16
	mov	rbp, rsp
	.seh_setframe	rbp, 0
	.cfi_def_cfa_register 6
	.seh_endprologue
	mov	QWORD PTR 16[rbp], rcx
	mov	QWORD PTR 24[rbp], rdx
	.loc 5 117 57
	nop
	pop	rbp
	.cfi_restore 6
	.cfi_def_cfa 7, 8
	ret
	.cfi_endproc
.LFE2748:
	.seh_endproc
	.section	.text$_ZN9__gnu_cxx13new_allocatorI25WrappingValueTypeInstanceEC2ERKS2_,"x"
	.linkonce discard
	.align 2
	.globl	_ZN9__gnu_cxx13new_allocatorI25WrappingValueTypeInstanceEC2ERKS2_
	.def	_ZN9__gnu_cxx13new_allocatorI25WrappingValueTypeInstanceEC2ERKS2_;	.scl	2;	.type	32;	.endef
	.seh_proc	_ZN9__gnu_cxx13new_allocatorI25WrappingValueTypeInstanceEC2ERKS2_
_ZN9__gnu_cxx13new_allocatorI25WrappingValueTypeInstanceEC2ERKS2_:
.LFB2779:
	.loc 4 81 7
	.cfi_startproc
	push	rbp
	.seh_pushreg	rbp
	.cfi_def_cfa_offset 16
	.cfi_offset 6, -16
	mov	rbp, rsp
	.seh_setframe	rbp, 0
	.cfi_def_cfa_register 6
	.seh_endprologue
	mov	QWORD PTR 16[rbp], rcx
	mov	QWORD PTR 24[rbp], rdx
	.loc 4 81 67
	nop
	pop	rbp
	.cfi_restore 6
	.cfi_def_cfa 7, 8
	ret
	.cfi_endproc
.LFE2779:
	.seh_endproc
	.section	.text$_ZNSt16allocator_traitsISaI25WrappingValueTypeInstanceEE8allocateERS1_y,"x"
	.linkonce discard
	.globl	_ZNSt16allocator_traitsISaI25WrappingValueTypeInstanceEE8allocateERS1_y
	.def	_ZNSt16allocator_traitsISaI25WrappingValueTypeInstanceEE8allocateERS1_y;	.scl	2;	.type	32;	.endef
	.seh_proc	_ZNSt16allocator_traitsISaI25WrappingValueTypeInstanceEE8allocateERS1_y
_ZNSt16allocator_traitsISaI25WrappingValueTypeInstanceEE8allocateERS1_y:
.LFB2781:
	.loc 7 435 7
	.cfi_startproc
	push	rbp
	.seh_pushreg	rbp
	.cfi_def_cfa_offset 16
	.cfi_offset 6, -16
	mov	rbp, rsp
	.seh_setframe	rbp, 0
	.cfi_def_cfa_register 6
	sub	rsp, 32
	.seh_stackalloc	32
	.seh_endprologue
	mov	QWORD PTR 16[rbp], rcx
	mov	QWORD PTR 24[rbp], rdx
	.loc 7 436 32
	mov	rax, QWORD PTR 24[rbp]
	mov	r8d, 0
	mov	rdx, rax
	mov	rcx, QWORD PTR 16[rbp]
	call	_ZN9__gnu_cxx13new_allocatorI25WrappingValueTypeInstanceE8allocateEyPKv
	.loc 7 436 35
	add	rsp, 32
	pop	rbp
	.cfi_restore 6
	.cfi_def_cfa 7, 8
	ret
	.cfi_endproc
.LFE2781:
	.seh_endproc
	.section	.text$_ZN9__gnu_cxx13new_allocatorI25WrappingValueTypeInstanceE10deallocateEPS1_y,"x"
	.linkonce discard
	.align 2
	.globl	_ZN9__gnu_cxx13new_allocatorI25WrappingValueTypeInstanceE10deallocateEPS1_y
	.def	_ZN9__gnu_cxx13new_allocatorI25WrappingValueTypeInstanceE10deallocateEPS1_y;	.scl	2;	.type	32;	.endef
	.seh_proc	_ZN9__gnu_cxx13new_allocatorI25WrappingValueTypeInstanceE10deallocateEPS1_y
_ZN9__gnu_cxx13new_allocatorI25WrappingValueTypeInstanceE10deallocateEPS1_y:
.LFB2782:
	.loc 4 116 7
	.cfi_startproc
	push	rbp
	.seh_pushreg	rbp
	.cfi_def_cfa_offset 16
	.cfi_offset 6, -16
	mov	rbp, rsp
	.seh_setframe	rbp, 0
	.cfi_def_cfa_register 6
	sub	rsp, 32
	.seh_stackalloc	32
	.seh_endprologue
	mov	QWORD PTR 16[rbp], rcx
	mov	QWORD PTR 24[rbp], rdx
	mov	QWORD PTR 32[rbp], r8
	.loc 4 125 19
	mov	rax, QWORD PTR 24[rbp]
	mov	rcx, rax
	call	_ZdlPv
	.loc 4 126 7
	nop
	add	rsp, 32
	pop	rbp
	.cfi_restore 6
	.cfi_def_cfa 7, 8
	ret
	.cfi_endproc
.LFE2782:
	.seh_endproc
	.section	.text$_ZNSt27__uninitialized_default_n_1ILb1EE18__uninit_default_nIP25WrappingValueTypeInstanceyEET_S4_T0_,"x"
	.linkonce discard
	.globl	_ZNSt27__uninitialized_default_n_1ILb1EE18__uninit_default_nIP25WrappingValueTypeInstanceyEET_S4_T0_
	.def	_ZNSt27__uninitialized_default_n_1ILb1EE18__uninit_default_nIP25WrappingValueTypeInstanceyEET_S4_T0_;	.scl	2;	.type	32;	.endef
	.seh_proc	_ZNSt27__uninitialized_default_n_1ILb1EE18__uninit_default_nIP25WrappingValueTypeInstanceyEET_S4_T0_
_ZNSt27__uninitialized_default_n_1ILb1EE18__uninit_default_nIP25WrappingValueTypeInstanceyEET_S4_T0_:
.LFB2783:
	.loc 6 543 9
	.cfi_startproc
	push	rbp
	.seh_pushreg	rbp
	.cfi_def_cfa_offset 16
	.cfi_offset 6, -16
	mov	rbp, rsp
	.seh_setframe	rbp, 0
	.cfi_def_cfa_register 6
	sub	rsp, 48
	.seh_stackalloc	48
	.seh_endprologue
	mov	QWORD PTR 16[rbp], rcx
	mov	QWORD PTR 24[rbp], rdx
	.loc 6 548 22
	mov	QWORD PTR -8[rbp], 0
	lea	rdx, -8[rbp]
	mov	rax, QWORD PTR 24[rbp]
	mov	r8, rdx
	mov	rdx, rax
	mov	rcx, QWORD PTR 16[rbp]
	call	_ZSt6fill_nIP25WrappingValueTypeInstanceyS0_ET_S2_T0_RKT1_
	.loc 6 548 49
	nop
	.loc 6 549 2
	add	rsp, 48
	pop	rbp
	.cfi_restore 6
	.cfi_def_cfa 7, 8
	ret
	.cfi_endproc
.LFE2783:
	.seh_endproc
	.section	.text$_ZN9__gnu_cxx13new_allocatorI25WrappingValueTypeInstanceE8allocateEyPKv,"x"
	.linkonce discard
	.align 2
	.globl	_ZN9__gnu_cxx13new_allocatorI25WrappingValueTypeInstanceE8allocateEyPKv
	.def	_ZN9__gnu_cxx13new_allocatorI25WrappingValueTypeInstanceE8allocateEyPKv;	.scl	2;	.type	32;	.endef
	.seh_proc	_ZN9__gnu_cxx13new_allocatorI25WrappingValueTypeInstanceE8allocateEyPKv
_ZN9__gnu_cxx13new_allocatorI25WrappingValueTypeInstanceE8allocateEyPKv:
.LFB2811:
	.loc 4 99 7
	.cfi_startproc
	push	rbp
	.seh_pushreg	rbp
	.cfi_def_cfa_offset 16
	.cfi_offset 6, -16
	mov	rbp, rsp
	.seh_setframe	rbp, 0
	.cfi_def_cfa_register 6
	sub	rsp, 32
	.seh_stackalloc	32
	.seh_endprologue
	mov	QWORD PTR 16[rbp], rcx
	mov	QWORD PTR 24[rbp], rdx
	mov	QWORD PTR 32[rbp], r8
	.loc 4 101 10
	mov	rcx, QWORD PTR 16[rbp]
	call	_ZNK9__gnu_cxx13new_allocatorI25WrappingValueTypeInstanceE8max_sizeEv
	cmp	QWORD PTR 24[rbp], rax
	seta	al
	.loc 4 101 2
	test	al, al
	je	.L70
	.loc 4 102 26
	call	_ZSt17__throw_bad_allocv
.L70:
	.loc 4 111 41
	mov	rax, QWORD PTR 24[rbp]
	sal	rax, 3
	mov	rcx, rax
	call	_Znwy
	.loc 4 112 7
	add	rsp, 32
	pop	rbp
	.cfi_restore 6
	.cfi_def_cfa 7, 8
	ret
	.cfi_endproc
.LFE2811:
	.seh_endproc
	.section	.text$_ZSt6fill_nIP25WrappingValueTypeInstanceyS0_ET_S2_T0_RKT1_,"x"
	.linkonce discard
	.globl	_ZSt6fill_nIP25WrappingValueTypeInstanceyS0_ET_S2_T0_RKT1_
	.def	_ZSt6fill_nIP25WrappingValueTypeInstanceyS0_ET_S2_T0_RKT1_;	.scl	2;	.type	32;	.endef
	.seh_proc	_ZSt6fill_nIP25WrappingValueTypeInstanceyS0_ET_S2_T0_RKT1_
_ZSt6fill_nIP25WrappingValueTypeInstanceyS0_ET_S2_T0_RKT1_:
.LFB2812:
	.file 8 "D:/mingw64/lib/gcc/x86_64-w64-mingw32/8.1.0/include/c++/bits/stl_algobase.h"
	.loc 8 784 5
	.cfi_startproc
	push	rbp
	.seh_pushreg	rbp
	.cfi_def_cfa_offset 16
	.cfi_offset 6, -16
	mov	rbp, rsp
	.seh_setframe	rbp, 0
	.cfi_def_cfa_register 6
	sub	rsp, 32
	.seh_stackalloc	32
	.seh_endprologue
	mov	QWORD PTR 16[rbp], rcx
	mov	QWORD PTR 24[rbp], rdx
	mov	QWORD PTR 32[rbp], r8
	.loc 8 789 33
	mov	rcx, QWORD PTR 16[rbp]
	call	_ZSt12__niter_baseIP25WrappingValueTypeInstanceET_S2_
	mov	rcx, rax
	mov	rdx, QWORD PTR 32[rbp]
	mov	rax, QWORD PTR 24[rbp]
	mov	r8, rdx
	mov	rdx, rax
	call	_ZSt10__fill_n_aIP25WrappingValueTypeInstanceyS0_EN9__gnu_cxx11__enable_ifIXntsrSt11__is_scalarIT1_E7__valueET_E6__typeES7_T0_RKS5_
	.loc 8 790 5
	add	rsp, 32
	pop	rbp
	.cfi_restore 6
	.cfi_def_cfa 7, 8
	ret
	.cfi_endproc
.LFE2812:
	.seh_endproc
	.section	.text$_ZNK9__gnu_cxx13new_allocatorI25WrappingValueTypeInstanceE8max_sizeEv,"x"
	.linkonce discard
	.align 2
	.globl	_ZNK9__gnu_cxx13new_allocatorI25WrappingValueTypeInstanceE8max_sizeEv
	.def	_ZNK9__gnu_cxx13new_allocatorI25WrappingValueTypeInstanceE8max_sizeEv;	.scl	2;	.type	32;	.endef
	.seh_proc	_ZNK9__gnu_cxx13new_allocatorI25WrappingValueTypeInstanceE8max_sizeEv
_ZNK9__gnu_cxx13new_allocatorI25WrappingValueTypeInstanceE8max_sizeEv:
.LFB2823:
	.loc 4 129 7
	.cfi_startproc
	push	rbp
	.seh_pushreg	rbp
	.cfi_def_cfa_offset 16
	.cfi_offset 6, -16
	mov	rbp, rsp
	.seh_setframe	rbp, 0
	.cfi_def_cfa_register 6
	.seh_endprologue
	mov	QWORD PTR 16[rbp], rcx
	.loc 4 130 39
	movabs	rax, 2305843009213693951
	.loc 4 130 42
	pop	rbp
	.cfi_restore 6
	.cfi_def_cfa 7, 8
	ret
	.cfi_endproc
.LFE2823:
	.seh_endproc
	.section	.text$_ZSt12__niter_baseIP25WrappingValueTypeInstanceET_S2_,"x"
	.linkonce discard
	.globl	_ZSt12__niter_baseIP25WrappingValueTypeInstanceET_S2_
	.def	_ZSt12__niter_baseIP25WrappingValueTypeInstanceET_S2_;	.scl	2;	.type	32;	.endef
	.seh_proc	_ZSt12__niter_baseIP25WrappingValueTypeInstanceET_S2_
_ZSt12__niter_baseIP25WrappingValueTypeInstanceET_S2_:
.LFB2824:
	.loc 8 277 5
	.cfi_startproc
	push	rbp
	.seh_pushreg	rbp
	.cfi_def_cfa_offset 16
	.cfi_offset 6, -16
	mov	rbp, rsp
	.seh_setframe	rbp, 0
	.cfi_def_cfa_register 6
	.seh_endprologue
	mov	QWORD PTR 16[rbp], rcx
	.loc 8 278 14
	mov	rax, QWORD PTR 16[rbp]
	.loc 8 278 20
	pop	rbp
	.cfi_restore 6
	.cfi_def_cfa 7, 8
	ret
	.cfi_endproc
.LFE2824:
	.seh_endproc
	.section	.text$_ZSt10__fill_n_aIP25WrappingValueTypeInstanceyS0_EN9__gnu_cxx11__enable_ifIXntsrSt11__is_scalarIT1_E7__valueET_E6__typeES7_T0_RKS5_,"x"
	.linkonce discard
	.globl	_ZSt10__fill_n_aIP25WrappingValueTypeInstanceyS0_EN9__gnu_cxx11__enable_ifIXntsrSt11__is_scalarIT1_E7__valueET_E6__typeES7_T0_RKS5_
	.def	_ZSt10__fill_n_aIP25WrappingValueTypeInstanceyS0_EN9__gnu_cxx11__enable_ifIXntsrSt11__is_scalarIT1_E7__valueET_E6__typeES7_T0_RKS5_;	.scl	2;	.type	32;	.endef
	.seh_proc	_ZSt10__fill_n_aIP25WrappingValueTypeInstanceyS0_EN9__gnu_cxx11__enable_ifIXntsrSt11__is_scalarIT1_E7__valueET_E6__typeES7_T0_RKS5_
_ZSt10__fill_n_aIP25WrappingValueTypeInstanceyS0_EN9__gnu_cxx11__enable_ifIXntsrSt11__is_scalarIT1_E7__valueET_E6__typeES7_T0_RKS5_:
.LFB2825:
	.loc 8 738 5
	.cfi_startproc
	push	rbp
	.seh_pushreg	rbp
	.cfi_def_cfa_offset 16
	.cfi_offset 6, -16
	mov	rbp, rsp
	.seh_setframe	rbp, 0
	.cfi_def_cfa_register 6
	sub	rsp, 16
	.seh_stackalloc	16
	.seh_endprologue
	mov	QWORD PTR 16[rbp], rcx
	mov	QWORD PTR 24[rbp], rdx
	mov	QWORD PTR 32[rbp], r8
.LBB19:
	.loc 8 740 32
	mov	rax, QWORD PTR 24[rbp]
	mov	QWORD PTR -8[rbp], rax
.L80:
	.loc 8 741 13
	cmp	QWORD PTR -8[rbp], 0
	je	.L79
	.loc 8 742 2
	mov	rax, QWORD PTR 16[rbp]
	mov	rdx, QWORD PTR 32[rbp]
	mov	rdx, QWORD PTR [rdx]
	mov	QWORD PTR [rax], rdx
	.loc 8 740 7
	sub	QWORD PTR -8[rbp], 1
	add	QWORD PTR 16[rbp], 8
	jmp	.L80
.L79:
.LBE19:
	.loc 8 743 14
	mov	rax, QWORD PTR 16[rbp]
	.loc 8 744 5
	add	rsp, 16
	pop	rbp
	.cfi_restore 6
	.cfi_def_cfa 7, 8
	ret
	.cfi_endproc
.LFE2825:
	.seh_endproc
	.text
	.def	__tcf_0;	.scl	3;	.type	32;	.endef
	.seh_proc	__tcf_0
__tcf_0:
.LFB2829:
	.file 9 "D:/mingw64/lib/gcc/x86_64-w64-mingw32/8.1.0/include/c++/iostream"
	.loc 9 74 25
	.cfi_startproc
	push	rbp
	.seh_pushreg	rbp
	.cfi_def_cfa_offset 16
	.cfi_offset 6, -16
	mov	rbp, rsp
	.seh_setframe	rbp, 0
	.cfi_def_cfa_register 6
	sub	rsp, 32
	.seh_stackalloc	32
	.seh_endprologue
	.loc 9 74 25
	lea	rcx, _ZStL8__ioinit[rip]
	call	_ZNSt8ios_base4InitD1Ev
	nop
	add	rsp, 32
	pop	rbp
	.cfi_restore 6
	.cfi_def_cfa 7, 8
	ret
	.cfi_endproc
.LFE2829:
	.seh_endproc
	.def	_Z41__static_initialization_and_destruction_0ii;	.scl	3;	.type	32;	.endef
	.seh_proc	_Z41__static_initialization_and_destruction_0ii
_Z41__static_initialization_and_destruction_0ii:
.LFB2828:
	.loc 1 188 1
	.cfi_startproc
	push	rbp
	.seh_pushreg	rbp
	.cfi_def_cfa_offset 16
	.cfi_offset 6, -16
	mov	rbp, rsp
	.seh_setframe	rbp, 0
	.cfi_def_cfa_register 6
	sub	rsp, 32
	.seh_stackalloc	32
	.seh_endprologue
	mov	DWORD PTR 16[rbp], ecx
	mov	DWORD PTR 24[rbp], edx
	.loc 1 188 1
	cmp	DWORD PTR 16[rbp], 1
	jne	.L85
	.loc 1 188 1 is_stmt 0 discriminator 1
	cmp	DWORD PTR 24[rbp], 65535
	jne	.L85
	.loc 9 74 25 is_stmt 1
	lea	rcx, _ZStL8__ioinit[rip]
	call	_ZNSt8ios_base4InitC1Ev
	lea	rcx, __tcf_0[rip]
	call	atexit
.L85:
	.loc 1 188 1
	nop
	add	rsp, 32
	pop	rbp
	.cfi_restore 6
	.cfi_def_cfa 7, 8
	ret
	.cfi_endproc
.LFE2828:
	.seh_endproc
	.def	_GLOBAL__sub_I__Z4func11MyValueTypeS_;	.scl	3;	.type	32;	.endef
	.seh_proc	_GLOBAL__sub_I__Z4func11MyValueTypeS_
_GLOBAL__sub_I__Z4func11MyValueTypeS_:
.LFB2830:
	.loc 1 188 1
	.cfi_startproc
	push	rbp
	.seh_pushreg	rbp
	.cfi_def_cfa_offset 16
	.cfi_offset 6, -16
	mov	rbp, rsp
	.seh_setframe	rbp, 0
	.cfi_def_cfa_register 6
	sub	rsp, 32
	.seh_stackalloc	32
	.seh_endprologue
	.loc 1 188 1
	mov	edx, 65535
	mov	ecx, 1
	call	_Z41__static_initialization_and_destruction_0ii
	nop
	add	rsp, 32
	pop	rbp
	.cfi_restore 6
	.cfi_def_cfa 7, 8
	ret
	.cfi_endproc
.LFE2830:
	.seh_endproc
	.section	.ctors,"w"
	.align 8
	.quad	_GLOBAL__sub_I__Z4func11MyValueTypeS_
	.text
.Letext0:
	.file 10 "D:/mingw64/lib/gcc/x86_64-w64-mingw32/8.1.0/include/c++/cwchar"
	.file 11 "D:/mingw64/lib/gcc/x86_64-w64-mingw32/8.1.0/include/c++/new"
	.file 12 "D:/mingw64/lib/gcc/x86_64-w64-mingw32/8.1.0/include/c++/bits/exception_ptr.h"
	.file 13 "D:/mingw64/lib/gcc/x86_64-w64-mingw32/8.1.0/include/c++/type_traits"
	.file 14 "D:/mingw64/lib/gcc/x86_64-w64-mingw32/8.1.0/include/c++/x86_64-w64-mingw32/bits/c++config.h"
	.file 15 "D:/mingw64/lib/gcc/x86_64-w64-mingw32/8.1.0/include/c++/bits/cpp_type_traits.h"
	.file 16 "D:/mingw64/lib/gcc/x86_64-w64-mingw32/8.1.0/include/c++/bits/stl_pair.h"
	.file 17 "D:/mingw64/lib/gcc/x86_64-w64-mingw32/8.1.0/include/c++/debug/debug.h"
	.file 18 "D:/mingw64/lib/gcc/x86_64-w64-mingw32/8.1.0/include/c++/bits/char_traits.h"
	.file 19 "D:/mingw64/lib/gcc/x86_64-w64-mingw32/8.1.0/include/c++/cstdint"
	.file 20 "D:/mingw64/lib/gcc/x86_64-w64-mingw32/8.1.0/include/c++/clocale"
	.file 21 "D:/mingw64/lib/gcc/x86_64-w64-mingw32/8.1.0/include/c++/cstdlib"
	.file 22 "D:/mingw64/lib/gcc/x86_64-w64-mingw32/8.1.0/include/c++/cstdio"
	.file 23 "D:/mingw64/lib/gcc/x86_64-w64-mingw32/8.1.0/include/c++/bits/basic_string.h"
	.file 24 "D:/mingw64/lib/gcc/x86_64-w64-mingw32/8.1.0/include/c++/system_error"
	.file 25 "D:/mingw64/lib/gcc/x86_64-w64-mingw32/8.1.0/include/c++/bits/ios_base.h"
	.file 26 "D:/mingw64/lib/gcc/x86_64-w64-mingw32/8.1.0/include/c++/cwctype"
	.file 27 "D:/mingw64/lib/gcc/x86_64-w64-mingw32/8.1.0/include/c++/iosfwd"
	.file 28 "D:/mingw64/lib/gcc/x86_64-w64-mingw32/8.1.0/include/c++/bits/uses_allocator.h"
	.file 29 "D:/mingw64/lib/gcc/x86_64-w64-mingw32/8.1.0/include/c++/tuple"
	.file 30 "D:/mingw64/lib/gcc/x86_64-w64-mingw32/8.1.0/include/c++/functional"
	.file 31 "D:/mingw64/lib/gcc/x86_64-w64-mingw32/8.1.0/include/c++/bits/vector.tcc"
	.file 32 "D:/mingw64/lib/gcc/x86_64-w64-mingw32/8.1.0/include/c++/initializer_list"
	.file 33 "D:/mingw64/lib/gcc/x86_64-w64-mingw32/8.1.0/include/c++/bits/predefined_ops.h"
	.file 34 "D:/mingw64/lib/gcc/x86_64-w64-mingw32/8.1.0/include/c++/ext/numeric_traits.h"
	.file 35 "D:/mingw64/lib/gcc/x86_64-w64-mingw32/8.1.0/include/c++/ext/alloc_traits.h"
	.file 36 "D:/mingw64/lib/gcc/x86_64-w64-mingw32/8.1.0/include/c++/ext/type_traits.h"
	.file 37 "D:/mingw64/x86_64-w64-mingw32/include/crtdefs.h"
	.file 38 "D:/mingw64/x86_64-w64-mingw32/include/locale.h"
	.file 39 "D:/mingw64/x86_64-w64-mingw32/include/wchar.h"
	.file 40 "D:/mingw64/x86_64-w64-mingw32/include/swprintf.inl"
	.file 41 "D:/mingw64/x86_64-w64-mingw32/include/stdint.h"
	.file 42 "D:/mingw64/x86_64-w64-mingw32/include/stdio.h"
	.file 43 "D:/mingw64/x86_64-w64-mingw32/include/ctype.h"
	.file 44 "D:/mingw64/x86_64-w64-mingw32/include/process.h"
	.file 45 "D:/mingw64/x86_64-w64-mingw32/include/pthread.h"
	.file 46 "D:/mingw64/lib/gcc/x86_64-w64-mingw32/8.1.0/include/c++/x86_64-w64-mingw32/bits/atomic_word.h"
	.file 47 "D:/mingw64/x86_64-w64-mingw32/include/stdlib.h"
	.file 48 "D:/mingw64/x86_64-w64-mingw32/include/malloc.h"
	.file 49 "D:/mingw64/x86_64-w64-mingw32/include/wctype.h"
	.file 50 "<built-in>"
	.section	.rdata$.refptr._ZSt4endlIcSt11char_traitsIcEERSt13basic_ostreamIT_T0_ES6_, "dr"
	.globl	.refptr._ZSt4endlIcSt11char_traitsIcEERSt13basic_ostreamIT_T0_ES6_
	.linkonce	discard
.refptr._ZSt4endlIcSt11char_traitsIcEERSt13basic_ostreamIT_T0_ES6_:
	.quad	_ZSt4endlIcSt11char_traitsIcEERSt13basic_ostreamIT_T0_ES6_
	.section	.rdata$.refptr._ZSt4cout, "dr"
	.globl	.refptr._ZSt4cout
	.linkonce	discard
.refptr._ZSt4cout:
	.quad	_ZSt4cout
