	.file	"MethodInvokeImpl.cpp"
	.intel_syntax noprefix
	.text
	.section .rdata,"dr"
_ZStL19piecewise_construct:
	.space 1
	.section	.text$_ZnwyPv,"x"
	.linkonce discard
	.globl	_ZnwyPv
	.def	_ZnwyPv;	.scl	2;	.type	32;	.endef
	.seh_proc	_ZnwyPv
_ZnwyPv:
.LFB5049:
	push	rbp
	.seh_pushreg	rbp
	mov	rbp, rsp
	.seh_setframe	rbp, 0
	.seh_endprologue
	mov	QWORD PTR 16[rbp], rcx
	mov	QWORD PTR 24[rbp], rdx
	mov	rax, QWORD PTR 24[rbp]
	pop	rbp
	ret
	.seh_endproc
	.section	.text$_ZdlPvS_,"x"
	.linkonce discard
	.globl	_ZdlPvS_
	.def	_ZdlPvS_;	.scl	2;	.type	32;	.endef
	.seh_proc	_ZdlPvS_
_ZdlPvS_:
.LFB5051:
	push	rbp
	.seh_pushreg	rbp
	mov	rbp, rsp
	.seh_setframe	rbp, 0
	.seh_endprologue
	mov	QWORD PTR 16[rbp], rcx
	mov	QWORD PTR 24[rbp], rdx
	nop
	pop	rbp
	ret
	.seh_endproc
	.section	.text$_ZNSt18_Rb_tree_node_base10_S_minimumEPS_,"x"
	.linkonce discard
	.globl	_ZNSt18_Rb_tree_node_base10_S_minimumEPS_
	.def	_ZNSt18_Rb_tree_node_base10_S_minimumEPS_;	.scl	2;	.type	32;	.endef
	.seh_proc	_ZNSt18_Rb_tree_node_base10_S_minimumEPS_
_ZNSt18_Rb_tree_node_base10_S_minimumEPS_:
.LFB5246:
	push	rbp
	.seh_pushreg	rbp
	mov	rbp, rsp
	.seh_setframe	rbp, 0
	.seh_endprologue
	mov	QWORD PTR 16[rbp], rcx
.L6:
	mov	rax, QWORD PTR 16[rbp]
	mov	rax, QWORD PTR 16[rax]
	test	rax, rax
	je	.L5
	mov	rax, QWORD PTR 16[rbp]
	mov	rax, QWORD PTR 16[rax]
	mov	QWORD PTR 16[rbp], rax
	jmp	.L6
.L5:
	mov	rax, QWORD PTR 16[rbp]
	pop	rbp
	ret
	.seh_endproc
	.section	.text$_ZNSt18_Rb_tree_node_base10_S_maximumEPS_,"x"
	.linkonce discard
	.globl	_ZNSt18_Rb_tree_node_base10_S_maximumEPS_
	.def	_ZNSt18_Rb_tree_node_base10_S_maximumEPS_;	.scl	2;	.type	32;	.endef
	.seh_proc	_ZNSt18_Rb_tree_node_base10_S_maximumEPS_
_ZNSt18_Rb_tree_node_base10_S_maximumEPS_:
.LFB5248:
	push	rbp
	.seh_pushreg	rbp
	mov	rbp, rsp
	.seh_setframe	rbp, 0
	.seh_endprologue
	mov	QWORD PTR 16[rbp], rcx
.L10:
	mov	rax, QWORD PTR 16[rbp]
	mov	rax, QWORD PTR 24[rax]
	test	rax, rax
	je	.L9
	mov	rax, QWORD PTR 16[rbp]
	mov	rax, QWORD PTR 24[rax]
	mov	QWORD PTR 16[rbp], rax
	jmp	.L10
.L9:
	mov	rax, QWORD PTR 16[rbp]
	pop	rbp
	ret
	.seh_endproc
	.section	.text$_ZNSt15_Rb_tree_headerC2Ev,"x"
	.linkonce discard
	.align 2
	.globl	_ZNSt15_Rb_tree_headerC2Ev
	.def	_ZNSt15_Rb_tree_headerC2Ev;	.scl	2;	.type	32;	.endef
	.seh_proc	_ZNSt15_Rb_tree_headerC2Ev
_ZNSt15_Rb_tree_headerC2Ev:
.LFB5254:
	push	rbp
	.seh_pushreg	rbp
	mov	rbp, rsp
	.seh_setframe	rbp, 0
	sub	rsp, 32
	.seh_stackalloc	32
	.seh_endprologue
	mov	QWORD PTR 16[rbp], rcx
	mov	rax, QWORD PTR 16[rbp]
	mov	DWORD PTR [rax], 0
	mov	rcx, QWORD PTR 16[rbp]
	call	_ZNSt15_Rb_tree_header8_M_resetEv
	nop
	add	rsp, 32
	pop	rbp
	ret
	.seh_endproc
	.section	.text$_ZNSt15_Rb_tree_header8_M_resetEv,"x"
	.linkonce discard
	.align 2
	.globl	_ZNSt15_Rb_tree_header8_M_resetEv
	.def	_ZNSt15_Rb_tree_header8_M_resetEv;	.scl	2;	.type	32;	.endef
	.seh_proc	_ZNSt15_Rb_tree_header8_M_resetEv
_ZNSt15_Rb_tree_header8_M_resetEv:
.LFB5260:
	push	rbp
	.seh_pushreg	rbp
	mov	rbp, rsp
	.seh_setframe	rbp, 0
	.seh_endprologue
	mov	QWORD PTR 16[rbp], rcx
	mov	rax, QWORD PTR 16[rbp]
	mov	QWORD PTR 8[rax], 0
	mov	rdx, QWORD PTR 16[rbp]
	mov	rax, QWORD PTR 16[rbp]
	mov	QWORD PTR 16[rax], rdx
	mov	rdx, QWORD PTR 16[rbp]
	mov	rax, QWORD PTR 16[rbp]
	mov	QWORD PTR 24[rax], rdx
	mov	rax, QWORD PTR 16[rbp]
	mov	QWORD PTR 32[rax], 0
	nop
	pop	rbp
	ret
	.seh_endproc
	.section .rdata,"dr"
_ZStL13allocator_arg:
	.space 1
_ZStL6ignore:
	.space 1
	.align 4
_ZN9__gnu_cxxL21__default_lock_policyE:
	.long	2
	.section	.text$_ZNK3ULR11cmp_chr_ptrclEPKcS2_,"x"
	.linkonce discard
	.align 2
	.globl	_ZNK3ULR11cmp_chr_ptrclEPKcS2_
	.def	_ZNK3ULR11cmp_chr_ptrclEPKcS2_;	.scl	2;	.type	32;	.endef
	.seh_proc	_ZNK3ULR11cmp_chr_ptrclEPKcS2_
_ZNK3ULR11cmp_chr_ptrclEPKcS2_:
.LFB7296:
	push	rbp
	.seh_pushreg	rbp
	mov	rbp, rsp
	.seh_setframe	rbp, 0
	sub	rsp, 32
	.seh_stackalloc	32
	.seh_endprologue
	mov	QWORD PTR 16[rbp], rcx
	mov	QWORD PTR 24[rbp], rdx
	mov	QWORD PTR 32[rbp], r8
	mov	rdx, QWORD PTR 32[rbp]
	mov	rax, QWORD PTR 24[rbp]
	mov	rcx, rax
	call	strcmp
	shr	eax, 31
	add	rsp, 32
	pop	rbp
	ret
	.seh_endproc
	.section	.text$_ZN3ULR14DestructorInfo6InvokeEPv,"x"
	.linkonce discard
	.align 2
	.globl	_ZN3ULR14DestructorInfo6InvokeEPv
	.def	_ZN3ULR14DestructorInfo6InvokeEPv;	.scl	2;	.type	32;	.endef
	.seh_proc	_ZN3ULR14DestructorInfo6InvokeEPv
_ZN3ULR14DestructorInfo6InvokeEPv:
.LFB7298:
	push	rbp
	.seh_pushreg	rbp
	mov	rbp, rsp
	.seh_setframe	rbp, 0
	sub	rsp, 48
	.seh_stackalloc	48
	.seh_endprologue
	mov	QWORD PTR 16[rbp], rcx
	mov	QWORD PTR 24[rbp], rdx
	mov	rax, QWORD PTR 16[rbp]
	mov	rax, QWORD PTR 16[rax]
	mov	eax, DWORD PTR [rax]
	cmp	eax, 2
	je	.L17
	mov	rax, QWORD PTR 16[rbp]
	mov	rax, QWORD PTR 16[rax]
	mov	eax, DWORD PTR [rax]
	cmp	eax, 3
	jne	.L18
.L17:
	add	QWORD PTR 24[rbp], 8
.L18:
	mov	rax, QWORD PTR 16[rbp]
	mov	rax, QWORD PTR 48[rax]
	mov	QWORD PTR -8[rbp], rax
	mov	rdx, QWORD PTR 24[rbp]
	mov	rax, QWORD PTR -8[rbp]
	mov	rcx, rdx
	call	rax
	nop
	add	rsp, 48
	pop	rbp
	ret
	.seh_endproc
	.section	.text$_ZN3ULR9FieldInfo10GetPointerEPv,"x"
	.linkonce discard
	.align 2
	.globl	_ZN3ULR9FieldInfo10GetPointerEPv
	.def	_ZN3ULR9FieldInfo10GetPointerEPv;	.scl	2;	.type	32;	.endef
	.seh_proc	_ZN3ULR9FieldInfo10GetPointerEPv
_ZN3ULR9FieldInfo10GetPointerEPv:
.LFB7299:
	push	rbp
	.seh_pushreg	rbp
	mov	rbp, rsp
	.seh_setframe	rbp, 0
	.seh_endprologue
	mov	QWORD PTR 16[rbp], rcx
	mov	QWORD PTR 24[rbp], rdx
	mov	rax, QWORD PTR 16[rbp]
	movzx	eax, BYTE PTR 24[rax]
	test	al, al
	je	.L20
	mov	rax, QWORD PTR 16[rbp]
	mov	rax, QWORD PTR 48[rax]
	jmp	.L21
.L20:
	mov	rax, QWORD PTR 16[rbp]
	mov	rax, QWORD PTR 48[rax]
	mov	rdx, rax
	mov	rax, QWORD PTR 24[rbp]
	add	rax, rdx
.L21:
	pop	rbp
	ret
	.seh_endproc
.lcomm _ZStL8__ioinit,1,1
	.section .rdata,"dr"
.LC0:
	.ascii ".dtor\0"
	.section	.text$_ZN3ULR8Resolver10ULRAPIImpl7GetDtorEPNS_4TypeE,"x"
	.linkonce discard
	.align 2
	.globl	_ZN3ULR8Resolver10ULRAPIImpl7GetDtorEPNS_4TypeE
	.def	_ZN3ULR8Resolver10ULRAPIImpl7GetDtorEPNS_4TypeE;	.scl	2;	.type	32;	.endef
	.seh_proc	_ZN3ULR8Resolver10ULRAPIImpl7GetDtorEPNS_4TypeE
_ZN3ULR8Resolver10ULRAPIImpl7GetDtorEPNS_4TypeE:
.LFB8358:
	push	rbp
	.seh_pushreg	rbp
	push	rbx
	.seh_pushreg	rbx
	sub	rsp, 72
	.seh_stackalloc	72
	lea	rbp, 128[rsp]
	.seh_setframe	rbp, 128
	.seh_endprologue
	mov	QWORD PTR -32[rbp], rcx
	mov	QWORD PTR -24[rbp], rdx
	lea	rax, .LC0[rip]
	mov	QWORD PTR -72[rbp], rax
	mov	rax, QWORD PTR -24[rbp]
	lea	rcx, 32[rax]
	lea	rax, -72[rbp]
	mov	rdx, rax
.LEHB0:
	call	_ZNSt3mapIPcSt6vectorIPN3ULR10MemberInfoESaIS4_EENS2_11cmp_chr_ptrESaISt4pairIKS0_S6_EEEixEOS0_
	mov	rdx, rax
	lea	rax, -96[rbp]
	mov	rcx, rax
	call	_ZNSt6vectorIPN3ULR10MemberInfoESaIS2_EEC1ERKS4_
.LEHE0:
	lea	rax, -96[rbp]
	mov	rcx, rax
	call	_ZNKSt6vectorIPN3ULR10MemberInfoESaIS2_EE4sizeEv
	test	rax, rax
	sete	al
	test	al, al
	je	.L23
.LEHB1:
	call	__cxa_rethrow
.LEHE1:
.L23:
	lea	rax, -96[rbp]
	mov	edx, 0
	mov	rcx, rax
	call	_ZNSt6vectorIPN3ULR10MemberInfoESaIS2_EEixEy
	mov	rbx, QWORD PTR [rax]
	lea	rax, -96[rbp]
	mov	rcx, rax
	call	_ZNSt6vectorIPN3ULR10MemberInfoESaIS2_EED1Ev
	mov	rax, rbx
	jmp	.L29
.L27:
	mov	rcx, rax
.LEHB2:
	call	_Unwind_Resume
.L28:
	mov	rbx, rax
	lea	rax, -96[rbp]
	mov	rcx, rax
	call	_ZNSt6vectorIPN3ULR10MemberInfoESaIS2_EED1Ev
	mov	rax, rbx
	mov	rcx, rax
	call	_Unwind_Resume
.LEHE2:
.L29:
	add	rsp, 72
	pop	rbx
	pop	rbp
	ret
	.def	__gxx_personality_seh0;	.scl	2;	.type	32;	.endef
	.seh_handler	__gxx_personality_seh0, @unwind, @except
	.seh_handlerdata
.LLSDA8358:
	.byte	0xff
	.byte	0xff
	.byte	0x1
	.uleb128 .LLSDACSE8358-.LLSDACSB8358
.LLSDACSB8358:
	.uleb128 .LEHB0-.LFB8358
	.uleb128 .LEHE0-.LEHB0
	.uleb128 .L27-.LFB8358
	.uleb128 0
	.uleb128 .LEHB1-.LFB8358
	.uleb128 .LEHE1-.LEHB1
	.uleb128 .L28-.LFB8358
	.uleb128 0
	.uleb128 .LEHB2-.LFB8358
	.uleb128 .LEHE2-.LEHB2
	.uleb128 0
	.uleb128 0
.LLSDACSE8358:
	.section	.text$_ZN3ULR8Resolver10ULRAPIImpl7GetDtorEPNS_4TypeE,"x"
	.linkonce discard
	.seh_endproc
	.section	.text$_ZN3ULR8Resolver10ULRAPIImpl9GetTypeOfEPv,"x"
	.linkonce discard
	.align 2
	.globl	_ZN3ULR8Resolver10ULRAPIImpl9GetTypeOfEPv
	.def	_ZN3ULR8Resolver10ULRAPIImpl9GetTypeOfEPv;	.scl	2;	.type	32;	.endef
	.seh_proc	_ZN3ULR8Resolver10ULRAPIImpl9GetTypeOfEPv
_ZN3ULR8Resolver10ULRAPIImpl9GetTypeOfEPv:
.LFB8361:
	push	rbp
	.seh_pushreg	rbp
	mov	rbp, rsp
	.seh_setframe	rbp, 0
	sub	rsp, 16
	.seh_stackalloc	16
	.seh_endprologue
	mov	QWORD PTR 16[rbp], rcx
	mov	QWORD PTR 24[rbp], rdx
	mov	rax, QWORD PTR 24[rbp]
	mov	QWORD PTR -8[rbp], rax
	mov	rax, QWORD PTR -8[rbp]
	mov	rax, QWORD PTR [rax]
	add	rsp, 16
	pop	rbp
	ret
	.seh_endproc
	.section	.text$_ZN3ULR8Resolver10ULRAPIImpl14AllocateObjectEy,"x"
	.linkonce discard
	.align 2
	.globl	_ZN3ULR8Resolver10ULRAPIImpl14AllocateObjectEy
	.def	_ZN3ULR8Resolver10ULRAPIImpl14AllocateObjectEy;	.scl	2;	.type	32;	.endef
	.seh_proc	_ZN3ULR8Resolver10ULRAPIImpl14AllocateObjectEy
_ZN3ULR8Resolver10ULRAPIImpl14AllocateObjectEy:
.LFB8362:
	push	rbp
	.seh_pushreg	rbp
	mov	rbp, rsp
	.seh_setframe	rbp, 0
	sub	rsp, 48
	.seh_stackalloc	48
	.seh_endprologue
	mov	QWORD PTR 16[rbp], rcx
	mov	QWORD PTR 24[rbp], rdx
	mov	rax, QWORD PTR 16[rbp]
	mov	rdx, QWORD PTR 88[rax]
	mov	rax, QWORD PTR 24[rbp]
	add	rax, rdx
	cmp	rax, 2000000000
	jbe	.L33
	mov	rax, QWORD PTR 16[rbp]
	mov	rdx, QWORD PTR 88[rax]
	mov	rax, QWORD PTR 24[rbp]
	add	rdx, rax
	mov	rax, QWORD PTR 16[rbp]
	mov	rax, QWORD PTR 32[rax]
	sub	rdx, rax
	mov	rax, rdx
	cmp	rax, 10000000
	jbe	.L33
	lea	rax, -16[rbp]
	mov	rdx, QWORD PTR 16[rbp]
	mov	rcx, rax
	call	_ZN3ULR8Resolver10ULRAPIImpl7CollectEv
.L33:
	mov	rax, QWORD PTR 24[rbp]
	mov	rdx, rax
	mov	rcx, QWORD PTR 16[rbp]
	call	_ZN3ULR8Resolver10ULRAPIImpl18AllocateObjectNoGCEy
	add	rsp, 48
	pop	rbp
	ret
	.seh_endproc
	.section	.text$_ZN3ULR8Resolver10ULRAPIImpl18AllocateObjectNoGCEy,"x"
	.linkonce discard
	.align 2
	.globl	_ZN3ULR8Resolver10ULRAPIImpl18AllocateObjectNoGCEy
	.def	_ZN3ULR8Resolver10ULRAPIImpl18AllocateObjectNoGCEy;	.scl	2;	.type	32;	.endef
	.seh_proc	_ZN3ULR8Resolver10ULRAPIImpl18AllocateObjectNoGCEy
_ZN3ULR8Resolver10ULRAPIImpl18AllocateObjectNoGCEy:
.LFB8364:
	push	rbp
	.seh_pushreg	rbp
	mov	rbp, rsp
	.seh_setframe	rbp, 0
	sub	rsp, 64
	.seh_stackalloc	64
	.seh_endprologue
	mov	QWORD PTR 16[rbp], rcx
	mov	QWORD PTR 24[rbp], rdx
	mov	rax, QWORD PTR 24[rbp]
	mov	rcx, rax
	call	malloc
	mov	QWORD PTR -24[rbp], rax
	mov	rax, QWORD PTR 16[rbp]
	lea	rdx, 40[rax]
	lea	rax, -16[rbp]
	lea	r8, 24[rbp]
	lea	rcx, -24[rbp]
	mov	r9, r8
	mov	r8, rcx
	mov	rcx, rax
	call	_ZNSt3mapIPvySt4lessIS0_ESaISt4pairIKS0_yEEE7emplaceIJRS0_RyEEES3_ISt17_Rb_tree_iteratorIS5_EbEDpOT_
	mov	rax, QWORD PTR 16[rbp]
	mov	rdx, QWORD PTR 88[rax]
	mov	rax, QWORD PTR 24[rbp]
	add	rdx, rax
	mov	rax, QWORD PTR 16[rbp]
	mov	QWORD PTR 88[rax], rdx
	mov	rax, QWORD PTR -24[rbp]
	add	rsp, 64
	pop	rbp
	ret
	.seh_endproc
	.section	.text$_ZNSt3setIPvSt4lessIS0_ESaIS0_EED1Ev,"x"
	.linkonce discard
	.align 2
	.globl	_ZNSt3setIPvSt4lessIS0_ESaIS0_EED1Ev
	.def	_ZNSt3setIPvSt4lessIS0_ESaIS0_EED1Ev;	.scl	2;	.type	32;	.endef
	.seh_proc	_ZNSt3setIPvSt4lessIS0_ESaIS0_EED1Ev
_ZNSt3setIPvSt4lessIS0_ESaIS0_EED1Ev:
.LFB8370:
	push	rbp
	.seh_pushreg	rbp
	mov	rbp, rsp
	.seh_setframe	rbp, 0
	sub	rsp, 32
	.seh_stackalloc	32
	.seh_endprologue
	mov	QWORD PTR 16[rbp], rcx
	mov	rax, QWORD PTR 16[rbp]
	mov	rcx, rax
	call	_ZNSt8_Rb_treeIPvS0_St9_IdentityIS0_ESt4lessIS0_ESaIS0_EED1Ev
	nop
	add	rsp, 32
	pop	rbp
	ret
	.seh_endproc
	.section	.text$_ZNSt8_Rb_treeIPvS0_St9_IdentityIS0_ESt4lessIS0_ESaIS0_EE13_Rb_tree_implIS4_Lb1EED1Ev,"x"
	.linkonce discard
	.align 2
	.globl	_ZNSt8_Rb_treeIPvS0_St9_IdentityIS0_ESt4lessIS0_ESaIS0_EE13_Rb_tree_implIS4_Lb1EED1Ev
	.def	_ZNSt8_Rb_treeIPvS0_St9_IdentityIS0_ESt4lessIS0_ESaIS0_EE13_Rb_tree_implIS4_Lb1EED1Ev;	.scl	2;	.type	32;	.endef
	.seh_proc	_ZNSt8_Rb_treeIPvS0_St9_IdentityIS0_ESt4lessIS0_ESaIS0_EE13_Rb_tree_implIS4_Lb1EED1Ev
_ZNSt8_Rb_treeIPvS0_St9_IdentityIS0_ESt4lessIS0_ESaIS0_EE13_Rb_tree_implIS4_Lb1EED1Ev:
.LFB8378:
	push	rbp
	.seh_pushreg	rbp
	mov	rbp, rsp
	.seh_setframe	rbp, 0
	sub	rsp, 32
	.seh_stackalloc	32
	.seh_endprologue
	mov	QWORD PTR 16[rbp], rcx
	mov	rcx, QWORD PTR 16[rbp]
	call	_ZNSaISt13_Rb_tree_nodeIPvEED2Ev
	nop
	add	rsp, 32
	pop	rbp
	ret
	.seh_endproc
	.section	.text$_ZN3ULR8Resolver10ULRAPIImpl11ExamineRootEPv,"x"
	.linkonce discard
	.align 2
	.globl	_ZN3ULR8Resolver10ULRAPIImpl11ExamineRootEPv
	.def	_ZN3ULR8Resolver10ULRAPIImpl11ExamineRootEPv;	.scl	2;	.type	32;	.endef
	.seh_proc	_ZN3ULR8Resolver10ULRAPIImpl11ExamineRootEPv
_ZN3ULR8Resolver10ULRAPIImpl11ExamineRootEPv:
.LFB8367:
	push	rbp
	.seh_pushreg	rbp
	push	rsi
	.seh_pushreg	rsi
	push	rbx
	.seh_pushreg	rbx
	mov	rbp, rsp
	.seh_setframe	rbp, 0
	sub	rsp, 176
	.seh_stackalloc	176
	.seh_endprologue
	mov	QWORD PTR 32[rbp], rcx
	mov	QWORD PTR 40[rbp], rdx
	mov	QWORD PTR 48[rbp], r8
	mov	rax, QWORD PTR 48[rbp]
	mov	QWORD PTR -48[rbp], rax
	lea	rax, -48[rbp]
	mov	rbx, rax
	mov	esi, 1
	lea	rax, -33[rbp]
	mov	rcx, rax
	call	_ZNSaIPvEC1Ev
	mov	QWORD PTR -144[rbp], rbx
	mov	QWORD PTR -136[rbp], rsi
	lea	rcx, -33[rbp]
	lea	rdx, -34[rbp]
	lea	rax, -144[rbp]
	mov	r9, rcx
	mov	r8, rdx
	mov	rdx, rax
	mov	rcx, QWORD PTR 32[rbp]
.LEHB3:
	call	_ZNSt3setIPvSt4lessIS0_ESaIS0_EEC1ESt16initializer_listIS0_ERKS2_RKS3_
.LEHE3:
	lea	rax, -33[rbp]
	mov	rcx, rax
	call	_ZNSaIPvED1Ev
	mov	rdx, QWORD PTR 48[rbp]
	mov	rax, QWORD PTR 40[rbp]
	mov	rcx, rax
	call	_ZN3ULR8Resolver10ULRAPIImpl9GetTypeOfEPv
	mov	QWORD PTR -8[rbp], rax
	mov	rax, QWORD PTR -8[rbp]
	add	rax, 80
	mov	QWORD PTR -16[rbp], rax
	mov	rax, QWORD PTR -16[rbp]
	mov	rcx, rax
	call	_ZNSt3mapIPcSt6vectorIPN3ULR10MemberInfoESaIS4_EENS2_11cmp_chr_ptrESaISt4pairIKS0_S6_EEE5beginEv
	mov	QWORD PTR -56[rbp], rax
	mov	rax, QWORD PTR -16[rbp]
	mov	rcx, rax
	call	_ZNSt3mapIPcSt6vectorIPN3ULR10MemberInfoESaIS4_EENS2_11cmp_chr_ptrESaISt4pairIKS0_S6_EEE3endEv
	mov	QWORD PTR -64[rbp], rax
.L43:
	lea	rdx, -64[rbp]
	lea	rax, -56[rbp]
	mov	rcx, rax
	call	_ZNKSt17_Rb_tree_iteratorISt4pairIKPcSt6vectorIPN3ULR10MemberInfoESaIS6_EEEEneERKSA_
	test	al, al
	je	.L51
	lea	rax, -56[rbp]
	mov	rcx, rax
	call	_ZNKSt17_Rb_tree_iteratorISt4pairIKPcSt6vectorIPN3ULR10MemberInfoESaIS6_EEEEdeEv
	mov	QWORD PTR -24[rbp], rax
	mov	rax, QWORD PTR -24[rbp]
	add	rax, 8
	mov	edx, 0
	mov	rcx, rax
	call	_ZNSt6vectorIPN3ULR10MemberInfoESaIS2_EEixEy
	mov	rax, QWORD PTR [rax]
	mov	eax, DWORD PTR 8[rax]
	cmp	eax, 2
	sete	al
	test	al, al
	je	.L41
	mov	rax, QWORD PTR -24[rbp]
	add	rax, 8
	mov	edx, 0
	mov	rcx, rax
	call	_ZNSt6vectorIPN3ULR10MemberInfoESaIS2_EEixEy
	mov	rax, QWORD PTR [rax]
	mov	QWORD PTR -32[rbp], rax
	mov	rdx, QWORD PTR 48[rbp]
	mov	rax, QWORD PTR -32[rbp]
	mov	rcx, rax
	call	_ZN3ULR9FieldInfo10GetPointerEPv
	mov	QWORD PTR -72[rbp], rax
	lea	rax, -72[rbp]
	mov	rdx, rax
	mov	rcx, QWORD PTR 32[rbp]
.LEHB4:
	call	_ZNKSt3setIPvSt4lessIS0_ESaIS0_EE5countERKS0_
	test	rax, rax
	setne	al
	test	al, al
	jne	.L52
	mov	rcx, QWORD PTR -72[rbp]
	lea	rax, -128[rbp]
	mov	rdx, QWORD PTR 40[rbp]
	mov	r8, rcx
	mov	rcx, rax
	call	_ZN3ULR8Resolver10ULRAPIImpl11ExamineRootEPv
.LEHE4:
	lea	rax, -128[rbp]
	mov	rcx, rax
	call	_ZNKSt3setIPvSt4lessIS0_ESaIS0_EE3endEv
	mov	rbx, rax
	lea	rax, -128[rbp]
	mov	rcx, rax
	call	_ZNKSt3setIPvSt4lessIS0_ESaIS0_EE5beginEv
	mov	r8, rbx
	mov	rdx, rax
	mov	rcx, QWORD PTR 32[rbp]
.LEHB5:
	call	_ZNSt3setIPvSt4lessIS0_ESaIS0_EE6insertISt23_Rb_tree_const_iteratorIS0_EEEvT_S8_
.LEHE5:
	lea	rax, -128[rbp]
	mov	rcx, rax
	call	_ZNSt3setIPvSt4lessIS0_ESaIS0_EED1Ev
	jmp	.L41
.L52:
	nop
.L41:
	lea	rax, -56[rbp]
	mov	rcx, rax
	call	_ZNSt17_Rb_tree_iteratorISt4pairIKPcSt6vectorIPN3ULR10MemberInfoESaIS6_EEEEppEv
	jmp	.L43
.L48:
	mov	rbx, rax
	lea	rax, -33[rbp]
	mov	rcx, rax
	call	_ZNSaIPvED1Ev
	mov	rax, rbx
	mov	rcx, rax
.LEHB6:
	call	_Unwind_Resume
.L50:
	mov	rbx, rax
	lea	rax, -128[rbp]
	mov	rcx, rax
	call	_ZNSt3setIPvSt4lessIS0_ESaIS0_EED1Ev
	mov	rax, rbx
	jmp	.L47
.L49:
.L47:
	mov	rbx, rax
	mov	rcx, QWORD PTR 32[rbp]
	call	_ZNSt3setIPvSt4lessIS0_ESaIS0_EED1Ev
	mov	rax, rbx
	mov	rcx, rax
	call	_Unwind_Resume
.LEHE6:
.L51:
	nop
	mov	rax, QWORD PTR 32[rbp]
	add	rsp, 176
	pop	rbx
	pop	rsi
	pop	rbp
	ret
	.seh_handler	__gxx_personality_seh0, @unwind, @except
	.seh_handlerdata
.LLSDA8367:
	.byte	0xff
	.byte	0xff
	.byte	0x1
	.uleb128 .LLSDACSE8367-.LLSDACSB8367
.LLSDACSB8367:
	.uleb128 .LEHB3-.LFB8367
	.uleb128 .LEHE3-.LEHB3
	.uleb128 .L48-.LFB8367
	.uleb128 0
	.uleb128 .LEHB4-.LFB8367
	.uleb128 .LEHE4-.LEHB4
	.uleb128 .L49-.LFB8367
	.uleb128 0
	.uleb128 .LEHB5-.LFB8367
	.uleb128 .LEHE5-.LEHB5
	.uleb128 .L50-.LFB8367
	.uleb128 0
	.uleb128 .LEHB6-.LFB8367
	.uleb128 .LEHE6-.LEHB6
	.uleb128 0
	.uleb128 0
.LLSDACSE8367:
	.section	.text$_ZN3ULR8Resolver10ULRAPIImpl11ExamineRootEPv,"x"
	.linkonce discard
	.seh_endproc
	.section	.text$_ZNSt8_Rb_treeIPvS0_St9_IdentityIS0_ESt4lessIS0_ESaIS0_EEC1Ev,"x"
	.linkonce discard
	.align 2
	.globl	_ZNSt8_Rb_treeIPvS0_St9_IdentityIS0_ESt4lessIS0_ESaIS0_EEC1Ev
	.def	_ZNSt8_Rb_treeIPvS0_St9_IdentityIS0_ESt4lessIS0_ESaIS0_EEC1Ev;	.scl	2;	.type	32;	.endef
	.seh_proc	_ZNSt8_Rb_treeIPvS0_St9_IdentityIS0_ESt4lessIS0_ESaIS0_EEC1Ev
_ZNSt8_Rb_treeIPvS0_St9_IdentityIS0_ESt4lessIS0_ESaIS0_EEC1Ev:
.LFB8387:
	push	rbp
	.seh_pushreg	rbp
	mov	rbp, rsp
	.seh_setframe	rbp, 0
	sub	rsp, 32
	.seh_stackalloc	32
	.seh_endprologue
	mov	QWORD PTR 16[rbp], rcx
	mov	rax, QWORD PTR 16[rbp]
	mov	rcx, rax
	call	_ZNSt8_Rb_treeIPvS0_St9_IdentityIS0_ESt4lessIS0_ESaIS0_EE13_Rb_tree_implIS4_Lb1EEC1Ev
	nop
	add	rsp, 32
	pop	rbp
	ret
	.seh_endproc
	.section	.text$_ZNSt3setIPvSt4lessIS0_ESaIS0_EEC1Ev,"x"
	.linkonce discard
	.align 2
	.globl	_ZNSt3setIPvSt4lessIS0_ESaIS0_EEC1Ev
	.def	_ZNSt3setIPvSt4lessIS0_ESaIS0_EEC1Ev;	.scl	2;	.type	32;	.endef
	.seh_proc	_ZNSt3setIPvSt4lessIS0_ESaIS0_EEC1Ev
_ZNSt3setIPvSt4lessIS0_ESaIS0_EEC1Ev:
.LFB8389:
	push	rbp
	.seh_pushreg	rbp
	mov	rbp, rsp
	.seh_setframe	rbp, 0
	sub	rsp, 32
	.seh_stackalloc	32
	.seh_endprologue
	mov	QWORD PTR 16[rbp], rcx
	mov	rax, QWORD PTR 16[rbp]
	mov	rcx, rax
	call	_ZNSt8_Rb_treeIPvS0_St9_IdentityIS0_ESt4lessIS0_ESaIS0_EEC1Ev
	nop
	add	rsp, 32
	pop	rbp
	ret
	.seh_endproc
	.section	.text$_ZN3ULR8Resolver10ULRAPIImpl12ExamineRootsESt3setIPvSt4lessIS3_ESaIS3_EE,"x"
	.linkonce discard
	.align 2
	.globl	_ZN3ULR8Resolver10ULRAPIImpl12ExamineRootsESt3setIPvSt4lessIS3_ESaIS3_EE
	.def	_ZN3ULR8Resolver10ULRAPIImpl12ExamineRootsESt3setIPvSt4lessIS3_ESaIS3_EE;	.scl	2;	.type	32;	.endef
	.seh_proc	_ZN3ULR8Resolver10ULRAPIImpl12ExamineRootsESt3setIPvSt4lessIS3_ESaIS3_EE
_ZN3ULR8Resolver10ULRAPIImpl12ExamineRootsESt3setIPvSt4lessIS3_ESaIS3_EE:
.LFB8383:
	push	rbp
	.seh_pushreg	rbp
	push	rbx
	.seh_pushreg	rbx
	sub	rsp, 120
	.seh_stackalloc	120
	lea	rbp, 128[rsp]
	.seh_setframe	rbp, 128
	.seh_endprologue
	mov	QWORD PTR 16[rbp], rcx
	mov	QWORD PTR 24[rbp], rdx
	mov	QWORD PTR 32[rbp], r8
	mov	rcx, QWORD PTR 16[rbp]
	call	_ZNSt3setIPvSt4lessIS0_ESaIS0_EEC1Ev
	mov	rax, QWORD PTR 32[rbp]
	mov	QWORD PTR -24[rbp], rax
	mov	rax, QWORD PTR -24[rbp]
	mov	rcx, rax
	call	_ZNKSt3setIPvSt4lessIS0_ESaIS0_EE5beginEv
	mov	QWORD PTR -40[rbp], rax
	mov	rax, QWORD PTR -24[rbp]
	mov	rcx, rax
	call	_ZNKSt3setIPvSt4lessIS0_ESaIS0_EE3endEv
	mov	QWORD PTR -48[rbp], rax
.L59:
	lea	rdx, -48[rbp]
	lea	rax, -40[rbp]
	mov	rcx, rax
	call	_ZNKSt23_Rb_tree_const_iteratorIPvEneERKS1_
	test	al, al
	je	.L65
	lea	rax, -40[rbp]
	mov	rcx, rax
	call	_ZNKSt23_Rb_tree_const_iteratorIPvEdeEv
	mov	QWORD PTR -32[rbp], rax
	mov	rax, QWORD PTR -32[rbp]
	mov	rdx, rax
	mov	rcx, QWORD PTR 16[rbp]
.LEHB7:
	call	_ZNKSt3setIPvSt4lessIS0_ESaIS0_EE5countERKS0_
	test	rax, rax
	setne	al
	test	al, al
	jne	.L66
	mov	rax, QWORD PTR -32[rbp]
	mov	rcx, QWORD PTR [rax]
	lea	rax, -96[rbp]
	mov	rdx, QWORD PTR 24[rbp]
	mov	r8, rcx
	mov	rcx, rax
	call	_ZN3ULR8Resolver10ULRAPIImpl11ExamineRootEPv
.LEHE7:
	lea	rax, -96[rbp]
	mov	rcx, rax
	call	_ZNKSt3setIPvSt4lessIS0_ESaIS0_EE3endEv
	mov	rbx, rax
	lea	rax, -96[rbp]
	mov	rcx, rax
	call	_ZNKSt3setIPvSt4lessIS0_ESaIS0_EE5beginEv
	mov	r8, rbx
	mov	rdx, rax
	mov	rcx, QWORD PTR 16[rbp]
.LEHB8:
	call	_ZNSt3setIPvSt4lessIS0_ESaIS0_EE6insertISt23_Rb_tree_const_iteratorIS0_EEEvT_S8_
.LEHE8:
	lea	rax, -96[rbp]
	mov	rcx, rax
	call	_ZNSt3setIPvSt4lessIS0_ESaIS0_EED1Ev
	jmp	.L58
.L66:
	nop
.L58:
	lea	rax, -40[rbp]
	mov	rcx, rax
	call	_ZNSt23_Rb_tree_const_iteratorIPvEppEv
	jmp	.L59
.L64:
	mov	rbx, rax
	lea	rax, -96[rbp]
	mov	rcx, rax
	call	_ZNSt3setIPvSt4lessIS0_ESaIS0_EED1Ev
	mov	rax, rbx
	jmp	.L62
.L63:
.L62:
	mov	rbx, rax
	mov	rcx, QWORD PTR 16[rbp]
	call	_ZNSt3setIPvSt4lessIS0_ESaIS0_EED1Ev
	mov	rax, rbx
	mov	rcx, rax
.LEHB9:
	call	_Unwind_Resume
.LEHE9:
.L65:
	nop
	mov	rax, QWORD PTR 16[rbp]
	add	rsp, 120
	pop	rbx
	pop	rbp
	ret
	.seh_handler	__gxx_personality_seh0, @unwind, @except
	.seh_handlerdata
.LLSDA8383:
	.byte	0xff
	.byte	0xff
	.byte	0x1
	.uleb128 .LLSDACSE8383-.LLSDACSB8383
.LLSDACSB8383:
	.uleb128 .LEHB7-.LFB8383
	.uleb128 .LEHE7-.LEHB7
	.uleb128 .L63-.LFB8383
	.uleb128 0
	.uleb128 .LEHB8-.LFB8383
	.uleb128 .LEHE8-.LEHB8
	.uleb128 .L64-.LFB8383
	.uleb128 0
	.uleb128 .LEHB9-.LFB8383
	.uleb128 .LEHE9-.LEHB9
	.uleb128 0
	.uleb128 0
.LLSDACSE8383:
	.section	.text$_ZN3ULR8Resolver10ULRAPIImpl12ExamineRootsESt3setIPvSt4lessIS3_ESaIS3_EE,"x"
	.linkonce discard
	.seh_endproc
	.section	.text$_ZNSt3setIPvSt4lessIS0_ESaIS0_EEC1ERKS4_,"x"
	.linkonce discard
	.align 2
	.globl	_ZNSt3setIPvSt4lessIS0_ESaIS0_EEC1ERKS4_
	.def	_ZNSt3setIPvSt4lessIS0_ESaIS0_EEC1ERKS4_;	.scl	2;	.type	32;	.endef
	.seh_proc	_ZNSt3setIPvSt4lessIS0_ESaIS0_EEC1ERKS4_
_ZNSt3setIPvSt4lessIS0_ESaIS0_EEC1ERKS4_:
.LFB8393:
	push	rbp
	.seh_pushreg	rbp
	mov	rbp, rsp
	.seh_setframe	rbp, 0
	sub	rsp, 32
	.seh_stackalloc	32
	.seh_endprologue
	mov	QWORD PTR 16[rbp], rcx
	mov	QWORD PTR 24[rbp], rdx
	mov	rax, QWORD PTR 16[rbp]
	mov	rdx, QWORD PTR 24[rbp]
	mov	rcx, rax
	call	_ZNSt8_Rb_treeIPvS0_St9_IdentityIS0_ESt4lessIS0_ESaIS0_EEC1ERKS6_
	nop
	add	rsp, 32
	pop	rbp
	ret
	.seh_endproc
	.section	.text$_ZNSt3mapIPvySt4lessIS0_ESaISt4pairIKS0_yEEEC1ERKS7_,"x"
	.linkonce discard
	.align 2
	.globl	_ZNSt3mapIPvySt4lessIS0_ESaISt4pairIKS0_yEEEC1ERKS7_
	.def	_ZNSt3mapIPvySt4lessIS0_ESaISt4pairIKS0_yEEEC1ERKS7_;	.scl	2;	.type	32;	.endef
	.seh_proc	_ZNSt3mapIPvySt4lessIS0_ESaISt4pairIKS0_yEEEC1ERKS7_
_ZNSt3mapIPvySt4lessIS0_ESaISt4pairIKS0_yEEEC1ERKS7_:
.LFB8396:
	push	rbp
	.seh_pushreg	rbp
	mov	rbp, rsp
	.seh_setframe	rbp, 0
	sub	rsp, 32
	.seh_stackalloc	32
	.seh_endprologue
	mov	QWORD PTR 16[rbp], rcx
	mov	QWORD PTR 24[rbp], rdx
	mov	rax, QWORD PTR 16[rbp]
	mov	rdx, QWORD PTR 24[rbp]
	mov	rcx, rax
	call	_ZNSt8_Rb_treeIPvSt4pairIKS0_yESt10_Select1stIS3_ESt4lessIS0_ESaIS3_EEC1ERKS9_
	nop
	add	rsp, 32
	pop	rbp
	ret
	.seh_endproc
	.section	.text$_ZNSt3mapIPvySt4lessIS0_ESaISt4pairIKS0_yEEED1Ev,"x"
	.linkonce discard
	.align 2
	.globl	_ZNSt3mapIPvySt4lessIS0_ESaISt4pairIKS0_yEEED1Ev
	.def	_ZNSt3mapIPvySt4lessIS0_ESaISt4pairIKS0_yEEED1Ev;	.scl	2;	.type	32;	.endef
	.seh_proc	_ZNSt3mapIPvySt4lessIS0_ESaISt4pairIKS0_yEEED1Ev
_ZNSt3mapIPvySt4lessIS0_ESaISt4pairIKS0_yEEED1Ev:
.LFB8399:
	push	rbp
	.seh_pushreg	rbp
	mov	rbp, rsp
	.seh_setframe	rbp, 0
	sub	rsp, 32
	.seh_stackalloc	32
	.seh_endprologue
	mov	QWORD PTR 16[rbp], rcx
	mov	rax, QWORD PTR 16[rbp]
	mov	rcx, rax
	call	_ZNSt8_Rb_treeIPvSt4pairIKS0_yESt10_Select1stIS3_ESt4lessIS0_ESaIS3_EED1Ev
	nop
	add	rsp, 32
	pop	rbp
	ret
	.seh_endproc
	.section	.text$_ZN3ULR8Resolver10ULRAPIImpl7CollectEv,"x"
	.linkonce discard
	.align 2
	.globl	_ZN3ULR8Resolver10ULRAPIImpl7CollectEv
	.def	_ZN3ULR8Resolver10ULRAPIImpl7CollectEv;	.scl	2;	.type	32;	.endef
	.seh_proc	_ZN3ULR8Resolver10ULRAPIImpl7CollectEv
_ZN3ULR8Resolver10ULRAPIImpl7CollectEv:
.LFB8390:
	push	rbp
	.seh_pushreg	rbp
	push	rbx
	.seh_pushreg	rbx
	sub	rsp, 440
	.seh_stackalloc	440
	lea	rbp, 128[rsp]
	.seh_setframe	rbp, 128
	.seh_endprologue
	mov	QWORD PTR 336[rbp], rcx
	mov	QWORD PTR 344[rbp], rdx
	lea	rax, 80[rbp]
	mov	rcx, rax
	call	_ZNSt3setIPvSt4lessIS0_ESaIS0_EEC1Ev
	mov	rax, QWORD PTR 344[rbp]
	mov	rax, QWORD PTR [rax]
	mov	QWORD PTR 288[rbp], rax
	mov	rax, QWORD PTR 288[rbp]
	mov	rcx, rax
	call	_ZNSt3mapIPcPN3ULR8AssemblyENS1_11cmp_chr_ptrESaISt4pairIKS0_S3_EEE5beginEv
	mov	QWORD PTR -24[rbp], rax
	mov	rax, QWORD PTR 288[rbp]
	mov	rcx, rax
	call	_ZNSt3mapIPcPN3ULR8AssemblyENS1_11cmp_chr_ptrESaISt4pairIKS0_S3_EEE3endEv
	mov	QWORD PTR -32[rbp], rax
.L81:
	lea	rdx, -32[rbp]
	lea	rax, -24[rbp]
	mov	rcx, rax
	call	_ZNKSt17_Rb_tree_iteratorISt4pairIKPcPN3ULR8AssemblyEEEneERKS7_
	test	al, al
	je	.L71
	lea	rax, -24[rbp]
	mov	rcx, rax
	call	_ZNKSt17_Rb_tree_iteratorISt4pairIKPcPN3ULR8AssemblyEEEdeEv
	mov	QWORD PTR 280[rbp], rax
	mov	QWORD PTR 296[rbp], 0
.L75:
	mov	rax, QWORD PTR 280[rbp]
	mov	rax, QWORD PTR 8[rax]
	mov	rax, QWORD PTR 48[rax]
	cmp	QWORD PTR 296[rbp], rax
	jnb	.L72
	mov	rax, QWORD PTR 280[rbp]
	mov	rax, QWORD PTR 8[rax]
	mov	rdx, QWORD PTR 40[rax]
	mov	rax, QWORD PTR 296[rbp]
	sal	rax, 3
	add	rax, rdx
	mov	rax, QWORD PTR [rax]
	mov	QWORD PTR -40[rbp], rax
	mov	rax, QWORD PTR -40[rbp]
	test	rax, rax
	je	.L95
	lea	rax, 128[rbp]
	lea	rcx, -40[rbp]
	lea	rdx, 80[rbp]
	mov	r8, rcx
	mov	rcx, rax
.LEHB10:
	call	_ZNSt3setIPvSt4lessIS0_ESaIS0_EE7emplaceIJRS0_EEESt4pairISt23_Rb_tree_const_iteratorIS0_EbEDpOT_
	jmp	.L74
.L95:
	nop
.L74:
	add	QWORD PTR 296[rbp], 1
	jmp	.L75
.L72:
	mov	rax, QWORD PTR 280[rbp]
	mov	rax, QWORD PTR 8[rax]
	add	rax, 72
	mov	QWORD PTR 272[rbp], rax
	mov	rax, QWORD PTR 272[rbp]
	mov	rcx, rax
	call	_ZNSt3mapIPcPN3ULR4TypeENS1_11cmp_chr_ptrESaISt4pairIKS0_S3_EEE5beginEv
	mov	QWORD PTR -48[rbp], rax
	mov	rax, QWORD PTR 272[rbp]
	mov	rcx, rax
	call	_ZNSt3mapIPcPN3ULR4TypeENS1_11cmp_chr_ptrESaISt4pairIKS0_S3_EEE3endEv
	mov	QWORD PTR -56[rbp], rax
.L80:
	lea	rdx, -56[rbp]
	lea	rax, -48[rbp]
	mov	rcx, rax
	call	_ZNKSt17_Rb_tree_iteratorISt4pairIKPcPN3ULR4TypeEEEneERKS7_
	test	al, al
	je	.L76
	lea	rax, -48[rbp]
	mov	rcx, rax
	call	_ZNKSt17_Rb_tree_iteratorISt4pairIKPcPN3ULR4TypeEEEdeEv
	mov	QWORD PTR 264[rbp], rax
	mov	rax, QWORD PTR 264[rbp]
	mov	rax, QWORD PTR 8[rax]
	add	rax, 32
	mov	QWORD PTR 256[rbp], rax
	mov	rax, QWORD PTR 256[rbp]
	mov	rcx, rax
	call	_ZNSt3mapIPcSt6vectorIPN3ULR10MemberInfoESaIS4_EENS2_11cmp_chr_ptrESaISt4pairIKS0_S6_EEE5beginEv
	mov	QWORD PTR -64[rbp], rax
	mov	rax, QWORD PTR 256[rbp]
	mov	rcx, rax
	call	_ZNSt3mapIPcSt6vectorIPN3ULR10MemberInfoESaIS4_EENS2_11cmp_chr_ptrESaISt4pairIKS0_S6_EEE3endEv
	mov	QWORD PTR -72[rbp], rax
.L79:
	lea	rdx, -72[rbp]
	lea	rax, -64[rbp]
	mov	rcx, rax
	call	_ZNKSt17_Rb_tree_iteratorISt4pairIKPcSt6vectorIPN3ULR10MemberInfoESaIS6_EEEEneERKSA_
	test	al, al
	je	.L77
	lea	rax, -64[rbp]
	mov	rcx, rax
	call	_ZNKSt17_Rb_tree_iteratorISt4pairIKPcSt6vectorIPN3ULR10MemberInfoESaIS6_EEEEdeEv
	mov	QWORD PTR 248[rbp], rax
	mov	rax, QWORD PTR 248[rbp]
	add	rax, 8
	mov	edx, 0
	mov	rcx, rax
	call	_ZNSt6vectorIPN3ULR10MemberInfoESaIS2_EEixEy
	mov	rax, QWORD PTR [rax]
	mov	eax, DWORD PTR 8[rax]
	cmp	eax, 2
	sete	al
	test	al, al
	je	.L78
	mov	rax, QWORD PTR 248[rbp]
	add	rax, 8
	mov	edx, 0
	mov	rcx, rax
	call	_ZNSt6vectorIPN3ULR10MemberInfoESaIS2_EEixEy
	mov	rax, QWORD PTR [rax]
	lea	rcx, 48[rax]
	lea	rax, 144[rbp]
	lea	rdx, 80[rbp]
	mov	r8, rcx
	mov	rcx, rax
	call	_ZNSt3setIPvSt4lessIS0_ESaIS0_EE7emplaceIJRS0_EEESt4pairISt23_Rb_tree_const_iteratorIS0_EbEDpOT_
.L78:
	lea	rax, -64[rbp]
	mov	rcx, rax
	call	_ZNSt17_Rb_tree_iteratorISt4pairIKPcSt6vectorIPN3ULR10MemberInfoESaIS6_EEEEppEv
	jmp	.L79
.L77:
	lea	rax, -48[rbp]
	mov	rcx, rax
	call	_ZNSt17_Rb_tree_iteratorISt4pairIKPcPN3ULR4TypeEEEppEv
	jmp	.L80
.L76:
	lea	rax, -24[rbp]
	mov	rcx, rax
	call	_ZNSt17_Rb_tree_iteratorISt4pairIKPcPN3ULR8AssemblyEEEppEv
	jmp	.L81
.L71:
	lea	rdx, 80[rbp]
	lea	rax, 160[rbp]
	mov	rcx, rax
	call	_ZNSt3setIPvSt4lessIS0_ESaIS0_EEC1ERKS4_
.LEHE10:
	lea	rax, 32[rbp]
	lea	rcx, 160[rbp]
	mov	rdx, QWORD PTR 344[rbp]
	mov	r8, rcx
	mov	rcx, rax
.LEHB11:
	call	_ZN3ULR8Resolver10ULRAPIImpl12ExamineRootsESt3setIPvSt4lessIS3_ESaIS3_EE
.LEHE11:
	lea	rax, 160[rbp]
	mov	rcx, rax
	call	_ZNSt3setIPvSt4lessIS0_ESaIS0_EED1Ev
	mov	rax, QWORD PTR 344[rbp]
	lea	rdx, 40[rax]
	lea	rax, -16[rbp]
	mov	rcx, rax
.LEHB12:
	call	_ZNSt3mapIPvySt4lessIS0_ESaISt4pairIKS0_yEEEC1ERKS7_
.LEHE12:
	lea	rax, -16[rbp]
	mov	QWORD PTR 240[rbp], rax
	mov	rax, QWORD PTR 240[rbp]
	mov	rcx, rax
	call	_ZNSt3mapIPvySt4lessIS0_ESaISt4pairIKS0_yEEE5beginEv
	mov	QWORD PTR -80[rbp], rax
	mov	rax, QWORD PTR 240[rbp]
	mov	rcx, rax
	call	_ZNSt3mapIPvySt4lessIS0_ESaISt4pairIKS0_yEEE3endEv
	mov	QWORD PTR -88[rbp], rax
.L84:
	lea	rdx, -88[rbp]
	lea	rax, -80[rbp]
	mov	rcx, rax
	call	_ZNKSt17_Rb_tree_iteratorISt4pairIKPvyEEneERKS4_
	test	al, al
	je	.L82
	lea	rax, -80[rbp]
	mov	rcx, rax
	call	_ZNKSt17_Rb_tree_iteratorISt4pairIKPvyEEdeEv
	mov	QWORD PTR 232[rbp], rax
	mov	rax, QWORD PTR 232[rbp]
	mov	QWORD PTR 224[rbp], rax
	mov	rdx, QWORD PTR 224[rbp]
	lea	rax, 32[rbp]
	mov	rcx, rax
.LEHB13:
	call	_ZNKSt3setIPvSt4lessIS0_ESaIS0_EE5countERKS0_
	test	rax, rax
	sete	al
	test	al, al
	je	.L83
	mov	rax, QWORD PTR 336[rbp]
	mov	rax, QWORD PTR 8[rax]
	lea	rdx, 1[rax]
	mov	rax, QWORD PTR 336[rbp]
	mov	QWORD PTR 8[rax], rdx
	mov	rax, QWORD PTR 336[rbp]
	mov	rdx, QWORD PTR [rax]
	mov	rax, QWORD PTR 232[rbp]
	mov	rax, QWORD PTR 8[rax]
	add	rdx, rax
	mov	rax, QWORD PTR 336[rbp]
	mov	QWORD PTR [rax], rdx
	mov	rax, QWORD PTR 224[rbp]
	mov	rdx, QWORD PTR [rax]
	mov	rax, QWORD PTR 344[rbp]
	mov	rcx, rax
	call	_ZN3ULR8Resolver10ULRAPIImpl9GetTypeOfEPv
	mov	QWORD PTR 216[rbp], rax
	mov	rdx, QWORD PTR 216[rbp]
	mov	rax, QWORD PTR 344[rbp]
	mov	rcx, rax
	call	_ZN3ULR8Resolver10ULRAPIImpl7GetDtorEPNS_4TypeE
	mov	rcx, rax
	mov	rax, QWORD PTR 224[rbp]
	mov	rax, QWORD PTR [rax]
	mov	rdx, rax
	call	_ZN3ULR14DestructorInfo6InvokeEPv
	mov	rax, QWORD PTR 224[rbp]
	mov	rax, QWORD PTR [rax]
	mov	rcx, rax
	call	free
	mov	rax, QWORD PTR 344[rbp]
	add	rax, 40
	mov	rdx, QWORD PTR 224[rbp]
	mov	rcx, rax
	call	_ZNSt3mapIPvySt4lessIS0_ESaISt4pairIKS0_yEEE5eraseERS4_
.LEHE13:
.L83:
	lea	rax, -80[rbp]
	mov	rcx, rax
	call	_ZNSt17_Rb_tree_iteratorISt4pairIKPvyEEppEv
	jmp	.L84
.L82:
	mov	rax, QWORD PTR 344[rbp]
	mov	rdx, QWORD PTR 88[rax]
	mov	rax, QWORD PTR 336[rbp]
	mov	rax, QWORD PTR [rax]
	sub	rdx, rax
	mov	rax, QWORD PTR 344[rbp]
	mov	QWORD PTR 88[rax], rdx
	mov	rax, QWORD PTR 344[rbp]
	mov	rdx, QWORD PTR 88[rax]
	mov	rax, QWORD PTR 344[rbp]
	mov	QWORD PTR 32[rax], rdx
	nop
	lea	rax, -16[rbp]
	mov	rcx, rax
	call	_ZNSt3mapIPvySt4lessIS0_ESaISt4pairIKS0_yEEED1Ev
	lea	rax, 32[rbp]
	mov	rcx, rax
	call	_ZNSt3setIPvSt4lessIS0_ESaIS0_EED1Ev
	lea	rax, 80[rbp]
	mov	rcx, rax
	call	_ZNSt3setIPvSt4lessIS0_ESaIS0_EED1Ev
	jmp	.L94
.L91:
	mov	rbx, rax
	lea	rax, 160[rbp]
	mov	rcx, rax
	call	_ZNSt3setIPvSt4lessIS0_ESaIS0_EED1Ev
	jmp	.L87
.L93:
	mov	rbx, rax
	lea	rax, -16[rbp]
	mov	rcx, rax
	call	_ZNSt3mapIPvySt4lessIS0_ESaISt4pairIKS0_yEEED1Ev
	jmp	.L89
.L92:
	mov	rbx, rax
.L89:
	lea	rax, 32[rbp]
	mov	rcx, rax
	call	_ZNSt3setIPvSt4lessIS0_ESaIS0_EED1Ev
	jmp	.L87
.L90:
	mov	rbx, rax
.L87:
	lea	rax, 80[rbp]
	mov	rcx, rax
	call	_ZNSt3setIPvSt4lessIS0_ESaIS0_EED1Ev
	mov	rax, rbx
	mov	rcx, rax
.LEHB14:
	call	_Unwind_Resume
.LEHE14:
.L94:
	mov	rax, QWORD PTR 336[rbp]
	add	rsp, 440
	pop	rbx
	pop	rbp
	ret
	.seh_handler	__gxx_personality_seh0, @unwind, @except
	.seh_handlerdata
.LLSDA8390:
	.byte	0xff
	.byte	0xff
	.byte	0x1
	.uleb128 .LLSDACSE8390-.LLSDACSB8390
.LLSDACSB8390:
	.uleb128 .LEHB10-.LFB8390
	.uleb128 .LEHE10-.LEHB10
	.uleb128 .L90-.LFB8390
	.uleb128 0
	.uleb128 .LEHB11-.LFB8390
	.uleb128 .LEHE11-.LEHB11
	.uleb128 .L91-.LFB8390
	.uleb128 0
	.uleb128 .LEHB12-.LFB8390
	.uleb128 .LEHE12-.LEHB12
	.uleb128 .L92-.LFB8390
	.uleb128 0
	.uleb128 .LEHB13-.LFB8390
	.uleb128 .LEHE13-.LEHB13
	.uleb128 .L93-.LFB8390
	.uleb128 0
	.uleb128 .LEHB14-.LFB8390
	.uleb128 .LEHE14-.LEHB14
	.uleb128 0
	.uleb128 0
.LLSDACSE8390:
	.section	.text$_ZN3ULR8Resolver10ULRAPIImpl7CollectEv,"x"
	.linkonce discard
	.seh_endproc
	.globl	_ZN3ULR12internal_apiE
	.bss
	.align 8
_ZN3ULR12internal_apiE:
	.space 8
	.section .rdata,"dr"
.LC1:
	.ascii "herh\0"
	.text
	.align 2
	.globl	_ZN3ULR10MethodInfo6InvokeEPvSt6vectorIS1_SaIS1_EE
	.def	_ZN3ULR10MethodInfo6InvokeEPvSt6vectorIS1_SaIS1_EE;	.scl	2;	.type	32;	.endef
	.seh_proc	_ZN3ULR10MethodInfo6InvokeEPvSt6vectorIS1_SaIS1_EE
_ZN3ULR10MethodInfo6InvokeEPvSt6vectorIS1_SaIS1_EE:
.LFB8400:
	push	rbp
	.seh_pushreg	rbp
	push	rdi
	.seh_pushreg	rdi
	push	rsi
	.seh_pushreg	rsi
	push	rbx
	.seh_pushreg	rbx
	sub	rsp, 392
	.seh_stackalloc	392
	lea	rbp, 128[rsp]
	.seh_setframe	rbp, 128
	.seh_endprologue
	mov	QWORD PTR 304[rbp], rcx
	mov	QWORD PTR 312[rbp], rdx
	mov	QWORD PTR 320[rbp], r8
	mov	rax, QWORD PTR 304[rbp]
	lea	rdx, 48[rax]
	lea	rax, -48[rbp]
	mov	rcx, rax
.LEHB15:
	call	_ZNSt6vectorIPN3ULR4TypeESaIS2_EEC1ERKS4_
.LEHE15:
	mov	rax, QWORD PTR 304[rbp]
	movzx	eax, BYTE PTR 24[rax]
	xor	eax, 1
	test	al, al
	je	.L97
	mov	rax, QWORD PTR 320[rbp]
	mov	rcx, rax
	call	_ZNSt6vectorIPvSaIS0_EE5beginEv
	mov	QWORD PTR -16[rbp], rax
	lea	rdx, -16[rbp]
	lea	rax, -24[rbp]
	mov	rcx, rax
	call	_ZN9__gnu_cxx17__normal_iteratorIPKPvSt6vectorIS1_SaIS1_EEEC1IPS1_EERKNS0_IT_NS_11__enable_ifIXsrSt10__are_sameISA_S9_E7__valueES6_E6__typeEEE
	lea	rcx, 312[rbp]
	mov	rdx, QWORD PTR -24[rbp]
	mov	rax, QWORD PTR 320[rbp]
	mov	r8, rcx
	mov	rcx, rax
.LEHB16:
	call	_ZNSt6vectorIPvSaIS0_EE7emplaceIJRS0_EEEN9__gnu_cxx17__normal_iteratorIPS0_S2_EENS6_IPKS0_S2_EEDpOT_
	mov	rax, QWORD PTR 304[rbp]
	lea	rbx, 16[rax]
	lea	rax, -48[rbp]
	mov	rcx, rax
	call	_ZNSt6vectorIPN3ULR4TypeESaIS2_EE5beginEv
	mov	QWORD PTR 0[rbp], rax
	mov	rdx, rbp
	lea	rax, -8[rbp]
	mov	rcx, rax
	call	_ZN9__gnu_cxx17__normal_iteratorIPKPN3ULR4TypeESt6vectorIS3_SaIS3_EEEC1IPS3_EERKNS0_IT_NS_11__enable_ifIXsrSt10__are_sameISC_SB_E7__valueES8_E6__typeEEE
	mov	rdx, QWORD PTR -8[rbp]
	lea	rax, -48[rbp]
	mov	r8, rbx
	mov	rcx, rax
	call	_ZNSt6vectorIPN3ULR4TypeESaIS2_EE7emplaceIJRS2_EEEN9__gnu_cxx17__normal_iteratorIPS2_S4_EENS8_IPKS2_S4_EEDpOT_
.LEHE16:
.L97:
	mov	rax, QWORD PTR 320[rbp]
	mov	rcx, rax
	call	_ZNKSt6vectorIPvSaIS0_EE4sizeEv
	mov	QWORD PTR 112[rbp], rax
	lea	rax, 15[rbp]
	mov	rcx, rax
	call	_ZNSaIPvEC1Ev
	lea	rcx, 15[rbp]
	mov	rdx, QWORD PTR 112[rbp]
	lea	rax, -80[rbp]
	mov	r8, rcx
	mov	rcx, rax
.LEHB17:
	call	_ZNSt6vectorIPvSaIS0_EEC1EyRKS1_
.LEHE17:
	lea	rax, 15[rbp]
	mov	rcx, rax
	call	_ZNSaIPvED1Ev
	mov	rdx, QWORD PTR 112[rbp]
	lea	rax, -48[rbp]
	mov	rcx, rax
	call	_ZNSt6vectorIPN3ULR4TypeESaIS2_EEixEy
	mov	rax, QWORD PTR [rax]
	mov	QWORD PTR 104[rbp], rax
	mov	QWORD PTR 248[rbp], 0
.L108:
	lea	rax, -48[rbp]
	mov	rcx, rax
	call	_ZNKSt6vectorIPN3ULR4TypeESaIS2_EE4sizeEv
	sub	rax, 1
	cmp	QWORD PTR 248[rbp], rax
	setb	al
	test	al, al
	je	.L98
	mov	rdx, QWORD PTR 248[rbp]
	lea	rax, -48[rbp]
	mov	rcx, rax
	call	_ZNSt6vectorIPN3ULR4TypeESaIS2_EEixEy
	mov	rax, QWORD PTR [rax]
	mov	eax, DWORD PTR [rax]
	cmp	eax, 2
	je	.L99
	mov	rdx, QWORD PTR 248[rbp]
	lea	rax, -48[rbp]
	mov	rcx, rax
	call	_ZNSt6vectorIPN3ULR4TypeESaIS2_EEixEy
	mov	rax, QWORD PTR [rax]
	mov	eax, DWORD PTR [rax]
	cmp	eax, 3
	jne	.L100
.L99:
	mov	eax, 1
	jmp	.L101
.L100:
	mov	eax, 0
.L101:
	test	al, al
	je	.L102
	mov	rdx, QWORD PTR 248[rbp]
	lea	rax, -48[rbp]
	mov	rcx, rax
	call	_ZNSt6vectorIPN3ULR4TypeESaIS2_EEixEy
	mov	rax, QWORD PTR [rax]
	mov	rax, QWORD PTR 24[rax]
	cmp	rax, 8
	ja	.L103
	mov	rax, QWORD PTR 304[rbp]
	movzx	eax, BYTE PTR 24[rax]
	test	al, al
	jne	.L104
	cmp	QWORD PTR 248[rbp], 0
	je	.L103
.L104:
	mov	eax, 1
	jmp	.L105
.L103:
	mov	eax, 0
.L105:
	test	al, al
	je	.L106
	mov	rdx, QWORD PTR 248[rbp]
	mov	rax, QWORD PTR 320[rbp]
	mov	rcx, rax
	call	_ZNSt6vectorIPvSaIS0_EEixEy
	mov	rbx, QWORD PTR [rax]
	mov	rdx, QWORD PTR 248[rbp]
	lea	rax, -80[rbp]
	mov	rcx, rax
	call	_ZNSt6vectorIPvSaIS0_EEixEy
	mov	rdx, rax
	mov	rax, QWORD PTR 8[rbx]
	mov	QWORD PTR [rdx], rax
	jmp	.L107
.L106:
	mov	rdx, QWORD PTR 248[rbp]
	mov	rax, QWORD PTR 320[rbp]
	mov	rcx, rax
	call	_ZNSt6vectorIPvSaIS0_EEixEy
	mov	rbx, QWORD PTR [rax]
	mov	rdx, QWORD PTR 248[rbp]
	lea	rax, -80[rbp]
	mov	rcx, rax
	call	_ZNSt6vectorIPvSaIS0_EEixEy
	mov	rdx, rax
	lea	rax, 8[rbx]
	mov	QWORD PTR [rdx], rax
	jmp	.L107
.L102:
	mov	rdx, QWORD PTR 248[rbp]
	mov	rax, QWORD PTR 320[rbp]
	mov	rcx, rax
	call	_ZNSt6vectorIPvSaIS0_EEixEy
	mov	rbx, rax
	mov	rdx, QWORD PTR 248[rbp]
	lea	rax, -80[rbp]
	mov	rcx, rax
	call	_ZNSt6vectorIPvSaIS0_EEixEy
	mov	rdx, rax
	mov	rax, QWORD PTR [rbx]
	mov	QWORD PTR [rdx], rax
.L107:
	add	QWORD PTR 248[rbp], 1
	jmp	.L108
.L98:
	mov	rax, QWORD PTR 104[rbp]
	mov	eax, DWORD PTR [rax]
	cmp	eax, 2
	je	.L109
	mov	rax, QWORD PTR 104[rbp]
	mov	eax, DWORD PTR [rax]
	cmp	eax, 3
	jne	.L110
.L109:
	mov	rax, QWORD PTR 104[rbp]
	mov	rax, QWORD PTR 24[rax]
	cmp	rax, 8
	ja	.L111
	lea	rax, -80[rbp]
	mov	rcx, rax
	call	_ZNSt6vectorIPvSaIS0_EE4dataEv
	mov	QWORD PTR 80[rbp], rax
	cmp	QWORD PTR 112[rbp], 0
	je	.L112
	mov	rax, QWORD PTR 80[rbp]
	mov	rax, QWORD PTR [rax]
	mov	QWORD PTR 240[rbp], rax
.L112:
	cmp	QWORD PTR 112[rbp], 1
	jbe	.L113
	mov	rax, QWORD PTR 80[rbp]
	mov	rax, QWORD PTR 8[rax]
	mov	QWORD PTR 232[rbp], rax
.L113:
	cmp	QWORD PTR 112[rbp], 2
	jbe	.L114
	mov	rax, QWORD PTR 80[rbp]
	mov	rax, QWORD PTR 16[rax]
	mov	QWORD PTR 224[rbp], rax
.L114:
	cmp	QWORD PTR 112[rbp], 3
	jbe	.L115
	mov	rax, QWORD PTR 80[rbp]
	mov	rax, QWORD PTR 24[rax]
	mov	QWORD PTR 216[rbp], rax
.L115:
	cmp	QWORD PTR 112[rbp], 4
	jbe	.L116
	mov	rax, QWORD PTR 112[rbp]
	sub	rax, 1
	mov	QWORD PTR 208[rbp], rax
.L118:
	cmp	QWORD PTR 208[rbp], 3
	jbe	.L116
	mov	rax, QWORD PTR 208[rbp]
	lea	rdx, 0[0+rax*8]
	mov	rax, QWORD PTR 80[rbp]
	add	rax, rdx
	mov	rax, QWORD PTR [rax]
	mov	QWORD PTR 72[rbp], rax
	mov	rax, QWORD PTR 112[rbp]
	sub	rax, QWORD PTR 208[rbp]
	add	rax, 3
	lea	rdx, 0[0+rax*8]
	mov	rax, QWORD PTR 72[rbp]
/APP
 # 78 ".\Lib\Assembly\MethodInvokeImpl.cpp" 1
	mov [rsp+rdx], rax
	
 # 0 "" 2
/NO_APP
	sub	QWORD PTR 208[rbp], 1
	jmp	.L118
.L116:
	cmp	QWORD PTR 112[rbp], 3
	jbe	.L119
	mov	rax, QWORD PTR 304[rbp]
	mov	rdi, QWORD PTR 72[rax]
	mov	r10, QWORD PTR 240[rbp]
	mov	r11, QWORD PTR 232[rbp]
	mov	rbx, QWORD PTR 224[rbp]
	mov	rsi, QWORD PTR 216[rbp]
/APP
 # 97 ".\Lib\Assembly\MethodInvokeImpl.cpp" 1
	mov rcx, r10
	movq xmm0, r10
	mov rdx, r11
	movq xmm1, r11
	mov r8, rbx
	movq xmm2, rbx
	mov r9, rsi
	movq xmm3, rsi
	call rdi
	mov r10, rax
	
 # 0 "" 2
/NO_APP
	mov	QWORD PTR -88[rbp], r10
	jmp	.L120
.L119:
	cmp	QWORD PTR 112[rbp], 2
	jbe	.L121
	mov	rax, QWORD PTR 304[rbp]
	mov	rbx, QWORD PTR 72[rax]
	mov	r9, QWORD PTR 240[rbp]
	mov	r10, QWORD PTR 232[rbp]
	mov	r11, QWORD PTR 224[rbp]
/APP
 # 111 ".\Lib\Assembly\MethodInvokeImpl.cpp" 1
	mov rcx, r9
	movq xmm0, r9
	mov rdx, r10
	movq xmm1, r10
	mov r8, r11
	movq xmm2, r11
	call rbx
	mov r9, rax
	
 # 0 "" 2
/NO_APP
	mov	QWORD PTR -88[rbp], r9
	jmp	.L120
.L121:
	cmp	QWORD PTR 112[rbp], 1
	jbe	.L122
	mov	rax, QWORD PTR 304[rbp]
	mov	r10, QWORD PTR 72[rax]
	mov	r8, QWORD PTR 240[rbp]
	mov	r9, QWORD PTR 232[rbp]
/APP
 # 123 ".\Lib\Assembly\MethodInvokeImpl.cpp" 1
	mov rcx, r8
	movq xmm0, r8
	mov rdx, r9
	movq xmm1, r9
	call r10
	mov r8, rax
	
 # 0 "" 2
/NO_APP
	mov	QWORD PTR -88[rbp], r8
	jmp	.L120
.L122:
	cmp	QWORD PTR 112[rbp], 0
	je	.L123
	mov	rax, QWORD PTR 304[rbp]
	mov	r8, QWORD PTR 72[rax]
	mov	rdx, QWORD PTR 240[rbp]
/APP
 # 133 ".\Lib\Assembly\MethodInvokeImpl.cpp" 1
	mov rcx, rdx
	movq xmm0, rdx
	call r8
	mov rdx, rax
	
 # 0 "" 2
/NO_APP
	mov	QWORD PTR -88[rbp], rdx
	jmp	.L120
.L123:
	mov	rax, QWORD PTR 304[rbp]
	mov	rbx, QWORD PTR 72[rax]
/APP
 # 141 ".\Lib\Assembly\MethodInvokeImpl.cpp" 1
	call rbx
	mov rbx, rax
	
 # 0 "" 2
/NO_APP
	mov	QWORD PTR -88[rbp], rbx
.L120:
	mov	rax, QWORD PTR _ZN3ULR12internal_apiE[rip]
	mov	rdx, QWORD PTR 104[rbp]
	mov	rdx, QWORD PTR 24[rdx]
	add	rdx, 8
	mov	rcx, rax
.LEHB18:
	call	_ZN3ULR8Resolver10ULRAPIImpl14AllocateObjectEy
	mov	QWORD PTR 64[rbp], rax
	mov	rax, QWORD PTR 64[rbp]
	mov	rdx, QWORD PTR 104[rbp]
	mov	QWORD PTR [rax], rdx
	lea	rdx, .LC1[rip]
	mov	rcx, QWORD PTR .refptr._ZSt4cout[rip]
	call	_ZStlsISt11char_traitsIcEERSt13basic_ostreamIcT_ES5_PKc
	mov	rdx, QWORD PTR .refptr._ZSt4endlIcSt11char_traitsIcEERSt13basic_ostreamIT_T0_ES6_[rip]
	mov	rcx, rax
	call	_ZNSolsEPFRSoS_E
	mov	rax, QWORD PTR 104[rbp]
	mov	rdx, QWORD PTR 24[rax]
	mov	rax, QWORD PTR 64[rbp]
	lea	rcx, 8[rax]
	lea	rax, -88[rbp]
	mov	r8, rdx
	mov	rdx, rax
	call	memcpy
	mov	rbx, QWORD PTR 64[rbp]
	jmp	.L124
.L111:
	mov	rax, QWORD PTR _ZN3ULR12internal_apiE[rip]
	mov	rdx, QWORD PTR 104[rbp]
	mov	rdx, QWORD PTR 24[rdx]
	add	rdx, 8
	mov	rcx, rax
	call	_ZN3ULR8Resolver10ULRAPIImpl14AllocateObjectEy
	mov	QWORD PTR 56[rbp], rax
	mov	rax, QWORD PTR 56[rbp]
	mov	rdx, QWORD PTR 104[rbp]
	mov	QWORD PTR [rax], rdx
	mov	rax, QWORD PTR 56[rbp]
	add	rax, 8
	mov	QWORD PTR 16[rbp], rax
	lea	rax, -80[rbp]
	mov	rcx, rax
	call	_ZNSt6vectorIPvSaIS0_EE5beginEv
	mov	QWORD PTR 32[rbp], rax
	lea	rdx, 32[rbp]
	lea	rax, 24[rbp]
	mov	rcx, rax
	call	_ZN9__gnu_cxx17__normal_iteratorIPKPvSt6vectorIS1_SaIS1_EEEC1IPS1_EERKNS0_IT_NS_11__enable_ifIXsrSt10__are_sameISA_S9_E7__valueES6_E6__typeEEE
	lea	rcx, 16[rbp]
	mov	rdx, QWORD PTR 24[rbp]
	lea	rax, -80[rbp]
	mov	r8, rcx
	mov	rcx, rax
	call	_ZNSt6vectorIPvSaIS0_EE7emplaceIJPPN3ULR4TypeEEEEN9__gnu_cxx17__normal_iteratorIPS0_S2_EENS9_IPKS0_S2_EEDpOT_
.LEHE18:
	lea	rax, -80[rbp]
	mov	rcx, rax
	call	_ZNKSt6vectorIPvSaIS0_EE4sizeEv
	mov	QWORD PTR 112[rbp], rax
	lea	rax, -80[rbp]
	mov	rcx, rax
	call	_ZNSt6vectorIPvSaIS0_EE4dataEv
	mov	QWORD PTR 48[rbp], rax
	cmp	QWORD PTR 112[rbp], 0
	je	.L125
	mov	rax, QWORD PTR 48[rbp]
	mov	rax, QWORD PTR [rax]
	mov	QWORD PTR 200[rbp], rax
.L125:
	cmp	QWORD PTR 112[rbp], 1
	jbe	.L126
	mov	rax, QWORD PTR 48[rbp]
	mov	rax, QWORD PTR 8[rax]
	mov	QWORD PTR 192[rbp], rax
.L126:
	cmp	QWORD PTR 112[rbp], 2
	jbe	.L127
	mov	rax, QWORD PTR 48[rbp]
	mov	rax, QWORD PTR 16[rax]
	mov	QWORD PTR 184[rbp], rax
.L127:
	cmp	QWORD PTR 112[rbp], 3
	jbe	.L128
	mov	rax, QWORD PTR 48[rbp]
	mov	rax, QWORD PTR 24[rax]
	mov	QWORD PTR 176[rbp], rax
.L128:
	cmp	QWORD PTR 112[rbp], 4
	jbe	.L129
	mov	rax, QWORD PTR 112[rbp]
	sub	rax, 1
	mov	QWORD PTR 168[rbp], rax
.L131:
	cmp	QWORD PTR 168[rbp], 3
	jbe	.L129
	mov	rax, QWORD PTR 168[rbp]
	lea	rdx, 0[0+rax*8]
	mov	rax, QWORD PTR 48[rbp]
	add	rax, rdx
	mov	rax, QWORD PTR [rax]
	mov	QWORD PTR 40[rbp], rax
	mov	rax, QWORD PTR 112[rbp]
	sub	rax, QWORD PTR 168[rbp]
	add	rax, 3
	lea	rdx, 0[0+rax*8]
	mov	rax, QWORD PTR 40[rbp]
/APP
 # 184 ".\Lib\Assembly\MethodInvokeImpl.cpp" 1
	mov [rsp+rdx], rax
	
 # 0 "" 2
/NO_APP
	sub	QWORD PTR 168[rbp], 1
	jmp	.L131
.L129:
	cmp	QWORD PTR 112[rbp], 3
	jbe	.L132
	mov	rax, QWORD PTR 304[rbp]
	mov	rdi, QWORD PTR 72[rax]
	mov	r10, QWORD PTR 200[rbp]
	mov	r11, QWORD PTR 192[rbp]
	mov	rbx, QWORD PTR 184[rbp]
	mov	rsi, QWORD PTR 176[rbp]
/APP
 # 202 ".\Lib\Assembly\MethodInvokeImpl.cpp" 1
	mov rcx, r10
	movq xmm0, r10
	mov rdx, r11
	movq xmm1, r11
	mov r8, rbx
	movq xmm2, rbx
	mov r9, rsi
	movq xmm3, rsi
	call rdi
	
 # 0 "" 2
/NO_APP
	jmp	.L133
.L132:
	cmp	QWORD PTR 112[rbp], 2
	jbe	.L134
	mov	rax, QWORD PTR 304[rbp]
	mov	rbx, QWORD PTR 72[rax]
	mov	r9, QWORD PTR 200[rbp]
	mov	r10, QWORD PTR 192[rbp]
	mov	r11, QWORD PTR 184[rbp]
/APP
 # 215 ".\Lib\Assembly\MethodInvokeImpl.cpp" 1
	mov rcx, r9
	movq xmm0, r9
	mov rdx, r10
	movq xmm1, r10
	mov r8, r11
	movq xmm2, r11
	call rbx
	
 # 0 "" 2
/NO_APP
	jmp	.L133
.L134:
	cmp	QWORD PTR 112[rbp], 1
	jbe	.L135
	mov	rax, QWORD PTR 304[rbp]
	mov	r10, QWORD PTR 72[rax]
	mov	r8, QWORD PTR 200[rbp]
	mov	r9, QWORD PTR 192[rbp]
/APP
 # 226 ".\Lib\Assembly\MethodInvokeImpl.cpp" 1
	mov rcx, r8
	movq xmm0, r8
	mov rdx, r9
	movq xmm1, r9
	call r10
	
 # 0 "" 2
/NO_APP
	jmp	.L133
.L135:
	cmp	QWORD PTR 112[rbp], 0
	je	.L133
	mov	rax, QWORD PTR 304[rbp]
	mov	r8, QWORD PTR 72[rax]
	mov	rdx, QWORD PTR 200[rbp]
/APP
 # 235 ".\Lib\Assembly\MethodInvokeImpl.cpp" 1
	mov rcx, rdx
	movq xmm0, rdx
	call r8
	
 # 0 "" 2
/NO_APP
.L133:
	mov	rbx, QWORD PTR 56[rbp]
	jmp	.L124
.L110:
	lea	rax, -80[rbp]
	mov	rcx, rax
	call	_ZNSt6vectorIPvSaIS0_EE4dataEv
	mov	QWORD PTR 96[rbp], rax
	cmp	QWORD PTR 112[rbp], 0
	je	.L136
	mov	rax, QWORD PTR 96[rbp]
	mov	rax, QWORD PTR [rax]
	mov	QWORD PTR 152[rbp], rax
.L136:
	cmp	QWORD PTR 112[rbp], 1
	jbe	.L137
	mov	rax, QWORD PTR 96[rbp]
	mov	rax, QWORD PTR 8[rax]
	mov	QWORD PTR 144[rbp], rax
.L137:
	cmp	QWORD PTR 112[rbp], 2
	jbe	.L138
	mov	rax, QWORD PTR 96[rbp]
	mov	rax, QWORD PTR 16[rax]
	mov	QWORD PTR 136[rbp], rax
.L138:
	cmp	QWORD PTR 112[rbp], 3
	jbe	.L139
	mov	rax, QWORD PTR 96[rbp]
	mov	rax, QWORD PTR 24[rax]
	mov	QWORD PTR 128[rbp], rax
.L139:
	cmp	QWORD PTR 112[rbp], 4
	jbe	.L140
	mov	rax, QWORD PTR 112[rbp]
	sub	rax, 1
	mov	QWORD PTR 120[rbp], rax
.L142:
	cmp	QWORD PTR 120[rbp], 3
	jbe	.L140
	mov	rax, QWORD PTR 120[rbp]
	lea	rdx, 0[0+rax*8]
	mov	rax, QWORD PTR 96[rbp]
	add	rax, rdx
	mov	rax, QWORD PTR [rax]
	mov	QWORD PTR 88[rbp], rax
	mov	rax, QWORD PTR 112[rbp]
	sub	rax, QWORD PTR 120[rbp]
	add	rax, 3
	lea	rdx, 0[0+rax*8]
	mov	rax, QWORD PTR 88[rbp]
/APP
 # 264 ".\Lib\Assembly\MethodInvokeImpl.cpp" 1
	mov [rsp+rdx], rax
	
 # 0 "" 2
/NO_APP
	sub	QWORD PTR 120[rbp], 1
	jmp	.L142
.L140:
	cmp	QWORD PTR 112[rbp], 3
	jbe	.L143
	mov	rax, QWORD PTR 304[rbp]
	mov	rdi, QWORD PTR 72[rax]
	mov	r10, QWORD PTR 152[rbp]
	mov	r11, QWORD PTR 144[rbp]
	mov	rbx, QWORD PTR 136[rbp]
	mov	rsi, QWORD PTR 128[rbp]
/APP
 # 283 ".\Lib\Assembly\MethodInvokeImpl.cpp" 1
	mov rcx, r10
	movq xmm0, r10
	mov rdx, r11
	movq xmm1, r11
	mov r8, rbx
	movq xmm2, rbx
	mov r9, rsi
	movq xmm3, rsi
	call rdi
	mov r10, rax
	
 # 0 "" 2
/NO_APP
	mov	QWORD PTR 160[rbp], r10
	jmp	.L144
.L143:
	cmp	QWORD PTR 112[rbp], 2
	jbe	.L145
	mov	rax, QWORD PTR 304[rbp]
	mov	rbx, QWORD PTR 72[rax]
	mov	r9, QWORD PTR 152[rbp]
	mov	r10, QWORD PTR 144[rbp]
	mov	r11, QWORD PTR 136[rbp]
/APP
 # 297 ".\Lib\Assembly\MethodInvokeImpl.cpp" 1
	mov rcx, r9
	movq xmm0, r9
	mov rdx, r10
	movq xmm1, r10
	mov r8, r11
	movq xmm2, r11
	call rbx
	mov r9, rax
	
 # 0 "" 2
/NO_APP
	mov	QWORD PTR 160[rbp], r9
	jmp	.L144
.L145:
	cmp	QWORD PTR 112[rbp], 1
	jbe	.L146
	mov	rax, QWORD PTR 304[rbp]
	mov	r10, QWORD PTR 72[rax]
	mov	r8, QWORD PTR 152[rbp]
	mov	r9, QWORD PTR 144[rbp]
/APP
 # 309 ".\Lib\Assembly\MethodInvokeImpl.cpp" 1
	mov rcx, r8
	movq xmm0, r8
	mov rdx, r9
	movq xmm1, r9
	call r10
	mov r8, rax
	
 # 0 "" 2
/NO_APP
	mov	QWORD PTR 160[rbp], r8
	jmp	.L144
.L146:
	cmp	QWORD PTR 112[rbp], 0
	je	.L147
	mov	rax, QWORD PTR 304[rbp]
	mov	r8, QWORD PTR 72[rax]
	mov	rdx, QWORD PTR 152[rbp]
/APP
 # 319 ".\Lib\Assembly\MethodInvokeImpl.cpp" 1
	mov rcx, rdx
	movq xmm0, rdx
	call r8
	mov rdx, rax
	
 # 0 "" 2
/NO_APP
	mov	QWORD PTR 160[rbp], rdx
	jmp	.L144
.L147:
	mov	rax, QWORD PTR 304[rbp]
	mov	rbx, QWORD PTR 72[rax]
/APP
 # 327 ".\Lib\Assembly\MethodInvokeImpl.cpp" 1
	call rbx
	mov rbx, rax
	
 # 0 "" 2
/NO_APP
	mov	QWORD PTR 160[rbp], rbx
.L144:
	mov	rbx, QWORD PTR 160[rbp]
.L124:
	lea	rax, -80[rbp]
	mov	rcx, rax
	call	_ZNSt6vectorIPvSaIS0_EED1Ev
	lea	rax, -48[rbp]
	mov	rcx, rax
	call	_ZNSt6vectorIPN3ULR4TypeESaIS2_EED1Ev
	mov	rax, rbx
	jmp	.L155
.L153:
	mov	rbx, rax
	lea	rax, 15[rbp]
	mov	rcx, rax
	call	_ZNSaIPvED1Ev
	jmp	.L150
.L154:
	mov	rbx, rax
	lea	rax, -80[rbp]
	mov	rcx, rax
	call	_ZNSt6vectorIPvSaIS0_EED1Ev
	jmp	.L150
.L152:
	mov	rbx, rax
.L150:
	lea	rax, -48[rbp]
	mov	rcx, rax
	call	_ZNSt6vectorIPN3ULR4TypeESaIS2_EED1Ev
	mov	rax, rbx
	mov	rcx, rax
.LEHB19:
	call	_Unwind_Resume
.LEHE19:
.L155:
	add	rsp, 392
	pop	rbx
	pop	rsi
	pop	rdi
	pop	rbp
	ret
	.seh_handler	__gxx_personality_seh0, @unwind, @except
	.seh_handlerdata
.LLSDA8400:
	.byte	0xff
	.byte	0xff
	.byte	0x1
	.uleb128 .LLSDACSE8400-.LLSDACSB8400
.LLSDACSB8400:
	.uleb128 .LEHB15-.LFB8400
	.uleb128 .LEHE15-.LEHB15
	.uleb128 0
	.uleb128 0
	.uleb128 .LEHB16-.LFB8400
	.uleb128 .LEHE16-.LEHB16
	.uleb128 .L152-.LFB8400
	.uleb128 0
	.uleb128 .LEHB17-.LFB8400
	.uleb128 .LEHE17-.LEHB17
	.uleb128 .L153-.LFB8400
	.uleb128 0
	.uleb128 .LEHB18-.LFB8400
	.uleb128 .LEHE18-.LEHB18
	.uleb128 .L154-.LFB8400
	.uleb128 0
	.uleb128 .LEHB19-.LFB8400
	.uleb128 .LEHE19-.LEHB19
	.uleb128 0
	.uleb128 0
.LLSDACSE8400:
	.text
	.seh_endproc
	.section	.text$_ZNSt6vectorIPN3ULR10MemberInfoESaIS2_EEC1ERKS4_,"x"
	.linkonce discard
	.align 2
	.globl	_ZNSt6vectorIPN3ULR10MemberInfoESaIS2_EEC1ERKS4_
	.def	_ZNSt6vectorIPN3ULR10MemberInfoESaIS2_EEC1ERKS4_;	.scl	2;	.type	32;	.endef
	.seh_proc	_ZNSt6vectorIPN3ULR10MemberInfoESaIS2_EEC1ERKS4_
_ZNSt6vectorIPN3ULR10MemberInfoESaIS2_EEC1ERKS4_:
.LFB8649:
	push	rbp
	.seh_pushreg	rbp
	push	rdi
	.seh_pushreg	rdi
	push	rsi
	.seh_pushreg	rsi
	push	rbx
	.seh_pushreg	rbx
	sub	rsp, 56
	.seh_stackalloc	56
	lea	rbp, 128[rsp]
	.seh_setframe	rbp, 128
	.seh_endprologue
	mov	QWORD PTR -32[rbp], rcx
	mov	QWORD PTR -24[rbp], rdx
	mov	rbx, QWORD PTR -32[rbp]
	mov	rax, QWORD PTR -24[rbp]
	mov	rcx, rax
	call	_ZNKSt12_Vector_baseIPN3ULR10MemberInfoESaIS2_EE19_M_get_Tp_allocatorEv
	mov	rdx, rax
	lea	rax, -81[rbp]
	mov	rcx, rax
.LEHB20:
	call	_ZN9__gnu_cxx14__alloc_traitsISaIPN3ULR10MemberInfoEES3_E17_S_select_on_copyERKS4_
.LEHE20:
	mov	rax, QWORD PTR -24[rbp]
	mov	rcx, rax
	call	_ZNKSt6vectorIPN3ULR10MemberInfoESaIS2_EE4sizeEv
	mov	rdx, rax
	lea	rax, -81[rbp]
	mov	r8, rax
	mov	rcx, rbx
.LEHB21:
	call	_ZNSt12_Vector_baseIPN3ULR10MemberInfoESaIS2_EEC2EyRKS3_
.LEHE21:
	lea	rax, -81[rbp]
	mov	rcx, rax
	call	_ZNSaIPN3ULR10MemberInfoEED1Ev
	mov	rax, QWORD PTR -32[rbp]
	mov	rcx, rax
	call	_ZNSt12_Vector_baseIPN3ULR10MemberInfoESaIS2_EE19_M_get_Tp_allocatorEv
	mov	rdi, rax
	mov	rax, QWORD PTR -32[rbp]
	mov	rbx, QWORD PTR [rax]
	mov	rax, QWORD PTR -24[rbp]
	mov	rcx, rax
	call	_ZNKSt6vectorIPN3ULR10MemberInfoESaIS2_EE3endEv
	mov	rsi, rax
	mov	rax, QWORD PTR -24[rbp]
	mov	rcx, rax
	call	_ZNKSt6vectorIPN3ULR10MemberInfoESaIS2_EE5beginEv
	mov	r9, rdi
	mov	r8, rbx
	mov	rdx, rsi
	mov	rcx, rax
.LEHB22:
	call	_ZSt22__uninitialized_copy_aIN9__gnu_cxx17__normal_iteratorIPKPN3ULR10MemberInfoESt6vectorIS4_SaIS4_EEEEPS4_S4_ET0_T_SD_SC_RSaIT1_E
.LEHE22:
	mov	rdx, rax
	mov	rax, QWORD PTR -32[rbp]
	mov	QWORD PTR 8[rax], rdx
	jmp	.L161
.L159:
	mov	rbx, rax
	lea	rax, -81[rbp]
	mov	rcx, rax
	call	_ZNSaIPN3ULR10MemberInfoEED1Ev
	mov	rax, rbx
	mov	rcx, rax
.LEHB23:
	call	_Unwind_Resume
.L160:
	mov	rbx, rax
	mov	rax, QWORD PTR -32[rbp]
	mov	rcx, rax
	call	_ZNSt12_Vector_baseIPN3ULR10MemberInfoESaIS2_EED2Ev
	mov	rax, rbx
	mov	rcx, rax
	call	_Unwind_Resume
	nop
.LEHE23:
.L161:
	add	rsp, 56
	pop	rbx
	pop	rsi
	pop	rdi
	pop	rbp
	ret
	.seh_handler	__gxx_personality_seh0, @unwind, @except
	.seh_handlerdata
.LLSDA8649:
	.byte	0xff
	.byte	0xff
	.byte	0x1
	.uleb128 .LLSDACSE8649-.LLSDACSB8649
.LLSDACSB8649:
	.uleb128 .LEHB20-.LFB8649
	.uleb128 .LEHE20-.LEHB20
	.uleb128 0
	.uleb128 0
	.uleb128 .LEHB21-.LFB8649
	.uleb128 .LEHE21-.LEHB21
	.uleb128 .L159-.LFB8649
	.uleb128 0
	.uleb128 .LEHB22-.LFB8649
	.uleb128 .LEHE22-.LEHB22
	.uleb128 .L160-.LFB8649
	.uleb128 0
	.uleb128 .LEHB23-.LFB8649
	.uleb128 .LEHE23-.LEHB23
	.uleb128 0
	.uleb128 0
.LLSDACSE8649:
	.section	.text$_ZNSt6vectorIPN3ULR10MemberInfoESaIS2_EEC1ERKS4_,"x"
	.linkonce discard
	.seh_endproc
	.section	.text$_ZNSt6vectorIPN3ULR10MemberInfoESaIS2_EED1Ev,"x"
	.linkonce discard
	.align 2
	.globl	_ZNSt6vectorIPN3ULR10MemberInfoESaIS2_EED1Ev
	.def	_ZNSt6vectorIPN3ULR10MemberInfoESaIS2_EED1Ev;	.scl	2;	.type	32;	.endef
	.seh_proc	_ZNSt6vectorIPN3ULR10MemberInfoESaIS2_EED1Ev
_ZNSt6vectorIPN3ULR10MemberInfoESaIS2_EED1Ev:
.LFB8652:
	push	rbp
	.seh_pushreg	rbp
	mov	rbp, rsp
	.seh_setframe	rbp, 0
	sub	rsp, 32
	.seh_stackalloc	32
	.seh_endprologue
	mov	QWORD PTR 16[rbp], rcx
	mov	rax, QWORD PTR 16[rbp]
	mov	rcx, rax
	call	_ZNSt12_Vector_baseIPN3ULR10MemberInfoESaIS2_EE19_M_get_Tp_allocatorEv
	mov	rcx, rax
	mov	rax, QWORD PTR 16[rbp]
	mov	rdx, QWORD PTR 8[rax]
	mov	rax, QWORD PTR 16[rbp]
	mov	rax, QWORD PTR [rax]
	mov	r8, rcx
	mov	rcx, rax
	call	_ZSt8_DestroyIPPN3ULR10MemberInfoES2_EvT_S4_RSaIT0_E
	mov	rax, QWORD PTR 16[rbp]
	mov	rcx, rax
	call	_ZNSt12_Vector_baseIPN3ULR10MemberInfoESaIS2_EED2Ev
	nop
	add	rsp, 32
	pop	rbp
	ret
	.seh_handler	__gxx_personality_seh0, @unwind, @except
	.seh_handlerdata
.LLSDA8652:
	.byte	0xff
	.byte	0xff
	.byte	0x1
	.uleb128 .LLSDACSE8652-.LLSDACSB8652
.LLSDACSB8652:
.LLSDACSE8652:
	.section	.text$_ZNSt6vectorIPN3ULR10MemberInfoESaIS2_EED1Ev,"x"
	.linkonce discard
	.seh_endproc
	.section	.text$_ZNSt3mapIPcSt6vectorIPN3ULR10MemberInfoESaIS4_EENS2_11cmp_chr_ptrESaISt4pairIKS0_S6_EEEixEOS0_,"x"
	.linkonce discard
	.align 2
	.globl	_ZNSt3mapIPcSt6vectorIPN3ULR10MemberInfoESaIS4_EENS2_11cmp_chr_ptrESaISt4pairIKS0_S6_EEEixEOS0_
	.def	_ZNSt3mapIPcSt6vectorIPN3ULR10MemberInfoESaIS4_EENS2_11cmp_chr_ptrESaISt4pairIKS0_S6_EEEixEOS0_;	.scl	2;	.type	32;	.endef
	.seh_proc	_ZNSt3mapIPcSt6vectorIPN3ULR10MemberInfoESaIS4_EENS2_11cmp_chr_ptrESaISt4pairIKS0_S6_EEEixEOS0_
_ZNSt3mapIPcSt6vectorIPN3ULR10MemberInfoESaIS4_EENS2_11cmp_chr_ptrESaISt4pairIKS0_S6_EEEixEOS0_:
.LFB8662:
	push	rbp
	.seh_pushreg	rbp
	push	rbx
	.seh_pushreg	rbx
	sub	rsp, 104
	.seh_stackalloc	104
	lea	rbp, 128[rsp]
	.seh_setframe	rbp, 128
	.seh_endprologue
	mov	QWORD PTR 0[rbp], rcx
	mov	QWORD PTR 8[rbp], rdx
	mov	rax, QWORD PTR 8[rbp]
	mov	rdx, rax
	mov	rcx, QWORD PTR 0[rbp]
	call	_ZNSt3mapIPcSt6vectorIPN3ULR10MemberInfoESaIS4_EENS2_11cmp_chr_ptrESaISt4pairIKS0_S6_EEE11lower_boundERS9_
	mov	QWORD PTR -72[rbp], rax
	mov	rcx, QWORD PTR 0[rbp]
	call	_ZNSt3mapIPcSt6vectorIPN3ULR10MemberInfoESaIS4_EENS2_11cmp_chr_ptrESaISt4pairIKS0_S6_EEE3endEv
	mov	QWORD PTR -64[rbp], rax
	lea	rdx, -64[rbp]
	lea	rax, -72[rbp]
	mov	rcx, rax
	call	_ZNKSt17_Rb_tree_iteratorISt4pairIKPcSt6vectorIPN3ULR10MemberInfoESaIS6_EEEEeqERKSA_
	test	al, al
	jne	.L164
	mov	rcx, QWORD PTR 0[rbp]
	call	_ZNKSt3mapIPcSt6vectorIPN3ULR10MemberInfoESaIS4_EENS2_11cmp_chr_ptrESaISt4pairIKS0_S6_EEE8key_compEv
	lea	rax, -72[rbp]
	mov	rcx, rax
	call	_ZNKSt17_Rb_tree_iteratorISt4pairIKPcSt6vectorIPN3ULR10MemberInfoESaIS6_EEEEdeEv
	mov	rcx, QWORD PTR [rax]
	mov	rax, QWORD PTR 8[rbp]
	mov	rdx, QWORD PTR [rax]
	lea	rax, -50[rbp]
	mov	r8, rcx
	mov	rcx, rax
	call	_ZNK3ULR11cmp_chr_ptrclEPKcS2_
	test	al, al
	je	.L165
.L164:
	mov	eax, 1
	jmp	.L166
.L165:
	mov	eax, 0
.L166:
	test	al, al
	je	.L167
	mov	rbx, QWORD PTR 0[rbp]
	mov	rax, QWORD PTR 8[rbp]
	mov	rcx, rax
	call	_ZSt4moveIRPcEONSt16remove_referenceIT_E4typeEOS3_
	mov	rdx, rax
	lea	rax, -48[rbp]
	mov	rcx, rax
	call	_ZSt16forward_as_tupleIJPcEESt5tupleIJDpOT_EES4_
	lea	rdx, -72[rbp]
	lea	rax, -40[rbp]
	mov	rcx, rax
	call	_ZNSt23_Rb_tree_const_iteratorISt4pairIKPcSt6vectorIPN3ULR10MemberInfoESaIS6_EEEEC1ERKSt17_Rb_tree_iteratorIS9_E
	lea	rcx, -48[rbp]
	mov	rdx, QWORD PTR -40[rbp]
	lea	rax, -49[rbp]
	mov	QWORD PTR 32[rsp], rax
	mov	r9, rcx
	lea	r8, _ZStL19piecewise_construct[rip]
	mov	rcx, rbx
	call	_ZNSt8_Rb_treeIPcSt4pairIKS0_St6vectorIPN3ULR10MemberInfoESaIS6_EEESt10_Select1stIS9_ENS4_11cmp_chr_ptrESaIS9_EE22_M_emplace_hint_uniqueIJRKSt21piecewise_construct_tSt5tupleIJOS0_EESJ_IJEEEEESt17_Rb_tree_iteratorIS9_ESt23_Rb_tree_const_iteratorIS9_EDpOT_
	mov	QWORD PTR -72[rbp], rax
.L167:
	lea	rax, -72[rbp]
	mov	rcx, rax
	call	_ZNKSt17_Rb_tree_iteratorISt4pairIKPcSt6vectorIPN3ULR10MemberInfoESaIS6_EEEEdeEv
	add	rax, 8
	add	rsp, 104
	pop	rbx
	pop	rbp
	ret
	.seh_endproc
	.section	.text$_ZNKSt6vectorIPN3ULR10MemberInfoESaIS2_EE4sizeEv,"x"
	.linkonce discard
	.align 2
	.globl	_ZNKSt6vectorIPN3ULR10MemberInfoESaIS2_EE4sizeEv
	.def	_ZNKSt6vectorIPN3ULR10MemberInfoESaIS2_EE4sizeEv;	.scl	2;	.type	32;	.endef
	.seh_proc	_ZNKSt6vectorIPN3ULR10MemberInfoESaIS2_EE4sizeEv
_ZNKSt6vectorIPN3ULR10MemberInfoESaIS2_EE4sizeEv:
.LFB8664:
	push	rbp
	.seh_pushreg	rbp
	mov	rbp, rsp
	.seh_setframe	rbp, 0
	.seh_endprologue
	mov	QWORD PTR 16[rbp], rcx
	mov	rax, QWORD PTR 16[rbp]
	mov	rdx, QWORD PTR 8[rax]
	mov	rax, QWORD PTR 16[rbp]
	mov	rax, QWORD PTR [rax]
	sub	rdx, rax
	mov	rax, rdx
	sar	rax, 3
	pop	rbp
	ret
	.seh_endproc
	.section	.text$_ZNSt6vectorIPN3ULR10MemberInfoESaIS2_EEixEy,"x"
	.linkonce discard
	.align 2
	.globl	_ZNSt6vectorIPN3ULR10MemberInfoESaIS2_EEixEy
	.def	_ZNSt6vectorIPN3ULR10MemberInfoESaIS2_EEixEy;	.scl	2;	.type	32;	.endef
	.seh_proc	_ZNSt6vectorIPN3ULR10MemberInfoESaIS2_EEixEy
_ZNSt6vectorIPN3ULR10MemberInfoESaIS2_EEixEy:
.LFB8665:
	push	rbp
	.seh_pushreg	rbp
	mov	rbp, rsp
	.seh_setframe	rbp, 0
	.seh_endprologue
	mov	QWORD PTR 16[rbp], rcx
	mov	QWORD PTR 24[rbp], rdx
	mov	rax, QWORD PTR 16[rbp]
	mov	rdx, QWORD PTR [rax]
	mov	rax, QWORD PTR 24[rbp]
	sal	rax, 3
	add	rax, rdx
	pop	rbp
	ret
	.seh_endproc
	.section	.text$_ZNSt3mapIPcPN3ULR8AssemblyENS1_11cmp_chr_ptrESaISt4pairIKS0_S3_EEE5beginEv,"x"
	.linkonce discard
	.align 2
	.globl	_ZNSt3mapIPcPN3ULR8AssemblyENS1_11cmp_chr_ptrESaISt4pairIKS0_S3_EEE5beginEv
	.def	_ZNSt3mapIPcPN3ULR8AssemblyENS1_11cmp_chr_ptrESaISt4pairIKS0_S3_EEE5beginEv;	.scl	2;	.type	32;	.endef
	.seh_proc	_ZNSt3mapIPcPN3ULR8AssemblyENS1_11cmp_chr_ptrESaISt4pairIKS0_S3_EEE5beginEv
_ZNSt3mapIPcPN3ULR8AssemblyENS1_11cmp_chr_ptrESaISt4pairIKS0_S3_EEE5beginEv:
.LFB8666:
	push	rbp
	.seh_pushreg	rbp
	mov	rbp, rsp
	.seh_setframe	rbp, 0
	sub	rsp, 32
	.seh_stackalloc	32
	.seh_endprologue
	mov	QWORD PTR 16[rbp], rcx
	mov	rax, QWORD PTR 16[rbp]
	mov	rcx, rax
	call	_ZNSt8_Rb_treeIPcSt4pairIKS0_PN3ULR8AssemblyEESt10_Select1stIS6_ENS3_11cmp_chr_ptrESaIS6_EE5beginEv
	add	rsp, 32
	pop	rbp
	ret
	.seh_endproc
	.section	.text$_ZNSt3mapIPcPN3ULR8AssemblyENS1_11cmp_chr_ptrESaISt4pairIKS0_S3_EEE3endEv,"x"
	.linkonce discard
	.align 2
	.globl	_ZNSt3mapIPcPN3ULR8AssemblyENS1_11cmp_chr_ptrESaISt4pairIKS0_S3_EEE3endEv
	.def	_ZNSt3mapIPcPN3ULR8AssemblyENS1_11cmp_chr_ptrESaISt4pairIKS0_S3_EEE3endEv;	.scl	2;	.type	32;	.endef
	.seh_proc	_ZNSt3mapIPcPN3ULR8AssemblyENS1_11cmp_chr_ptrESaISt4pairIKS0_S3_EEE3endEv
_ZNSt3mapIPcPN3ULR8AssemblyENS1_11cmp_chr_ptrESaISt4pairIKS0_S3_EEE3endEv:
.LFB8667:
	push	rbp
	.seh_pushreg	rbp
	mov	rbp, rsp
	.seh_setframe	rbp, 0
	sub	rsp, 32
	.seh_stackalloc	32
	.seh_endprologue
	mov	QWORD PTR 16[rbp], rcx
	mov	rax, QWORD PTR 16[rbp]
	mov	rcx, rax
	call	_ZNSt8_Rb_treeIPcSt4pairIKS0_PN3ULR8AssemblyEESt10_Select1stIS6_ENS3_11cmp_chr_ptrESaIS6_EE3endEv
	add	rsp, 32
	pop	rbp
	ret
	.seh_endproc
	.section	.text$_ZNKSt17_Rb_tree_iteratorISt4pairIKPcPN3ULR8AssemblyEEEneERKS7_,"x"
	.linkonce discard
	.align 2
	.globl	_ZNKSt17_Rb_tree_iteratorISt4pairIKPcPN3ULR8AssemblyEEEneERKS7_
	.def	_ZNKSt17_Rb_tree_iteratorISt4pairIKPcPN3ULR8AssemblyEEEneERKS7_;	.scl	2;	.type	32;	.endef
	.seh_proc	_ZNKSt17_Rb_tree_iteratorISt4pairIKPcPN3ULR8AssemblyEEEneERKS7_
_ZNKSt17_Rb_tree_iteratorISt4pairIKPcPN3ULR8AssemblyEEEneERKS7_:
.LFB8668:
	push	rbp
	.seh_pushreg	rbp
	mov	rbp, rsp
	.seh_setframe	rbp, 0
	.seh_endprologue
	mov	QWORD PTR 16[rbp], rcx
	mov	QWORD PTR 24[rbp], rdx
	mov	rax, QWORD PTR 16[rbp]
	mov	rdx, QWORD PTR [rax]
	mov	rax, QWORD PTR 24[rbp]
	mov	rax, QWORD PTR [rax]
	cmp	rdx, rax
	setne	al
	pop	rbp
	ret
	.seh_endproc
	.section	.text$_ZNSt17_Rb_tree_iteratorISt4pairIKPcPN3ULR8AssemblyEEEppEv,"x"
	.linkonce discard
	.align 2
	.globl	_ZNSt17_Rb_tree_iteratorISt4pairIKPcPN3ULR8AssemblyEEEppEv
	.def	_ZNSt17_Rb_tree_iteratorISt4pairIKPcPN3ULR8AssemblyEEEppEv;	.scl	2;	.type	32;	.endef
	.seh_proc	_ZNSt17_Rb_tree_iteratorISt4pairIKPcPN3ULR8AssemblyEEEppEv
_ZNSt17_Rb_tree_iteratorISt4pairIKPcPN3ULR8AssemblyEEEppEv:
.LFB8669:
	push	rbp
	.seh_pushreg	rbp
	mov	rbp, rsp
	.seh_setframe	rbp, 0
	sub	rsp, 32
	.seh_stackalloc	32
	.seh_endprologue
	mov	QWORD PTR 16[rbp], rcx
	mov	rax, QWORD PTR 16[rbp]
	mov	rax, QWORD PTR [rax]
	mov	rcx, rax
	call	_ZSt18_Rb_tree_incrementPSt18_Rb_tree_node_base
	mov	rdx, rax
	mov	rax, QWORD PTR 16[rbp]
	mov	QWORD PTR [rax], rdx
	mov	rax, QWORD PTR 16[rbp]
	add	rsp, 32
	pop	rbp
	ret
	.seh_endproc
	.section	.text$_ZNKSt17_Rb_tree_iteratorISt4pairIKPcPN3ULR8AssemblyEEEdeEv,"x"
	.linkonce discard
	.align 2
	.globl	_ZNKSt17_Rb_tree_iteratorISt4pairIKPcPN3ULR8AssemblyEEEdeEv
	.def	_ZNKSt17_Rb_tree_iteratorISt4pairIKPcPN3ULR8AssemblyEEEdeEv;	.scl	2;	.type	32;	.endef
	.seh_proc	_ZNKSt17_Rb_tree_iteratorISt4pairIKPcPN3ULR8AssemblyEEEdeEv
_ZNKSt17_Rb_tree_iteratorISt4pairIKPcPN3ULR8AssemblyEEEdeEv:
.LFB8670:
	push	rbp
	.seh_pushreg	rbp
	mov	rbp, rsp
	.seh_setframe	rbp, 0
	sub	rsp, 32
	.seh_stackalloc	32
	.seh_endprologue
	mov	QWORD PTR 16[rbp], rcx
	mov	rax, QWORD PTR 16[rbp]
	mov	rax, QWORD PTR [rax]
	mov	rcx, rax
	call	_ZNSt13_Rb_tree_nodeISt4pairIKPcPN3ULR8AssemblyEEE9_M_valptrEv
	add	rsp, 32
	pop	rbp
	ret
	.seh_endproc
	.section	.text$_ZNSt3mapIPvySt4lessIS0_ESaISt4pairIKS0_yEEE7emplaceIJRS0_RyEEES3_ISt17_Rb_tree_iteratorIS5_EbEDpOT_,"x"
	.linkonce discard
	.align 2
	.globl	_ZNSt3mapIPvySt4lessIS0_ESaISt4pairIKS0_yEEE7emplaceIJRS0_RyEEES3_ISt17_Rb_tree_iteratorIS5_EbEDpOT_
	.def	_ZNSt3mapIPvySt4lessIS0_ESaISt4pairIKS0_yEEE7emplaceIJRS0_RyEEES3_ISt17_Rb_tree_iteratorIS5_EbEDpOT_;	.scl	2;	.type	32;	.endef
	.seh_proc	_ZNSt3mapIPvySt4lessIS0_ESaISt4pairIKS0_yEEE7emplaceIJRS0_RyEEES3_ISt17_Rb_tree_iteratorIS5_EbEDpOT_
_ZNSt3mapIPvySt4lessIS0_ESaISt4pairIKS0_yEEE7emplaceIJRS0_RyEEES3_ISt17_Rb_tree_iteratorIS5_EbEDpOT_:
.LFB8674:
	push	rbp
	.seh_pushreg	rbp
	push	rsi
	.seh_pushreg	rsi
	push	rbx
	.seh_pushreg	rbx
	mov	rbp, rsp
	.seh_setframe	rbp, 0
	sub	rsp, 32
	.seh_stackalloc	32
	.seh_endprologue
	mov	QWORD PTR 32[rbp], rcx
	mov	QWORD PTR 40[rbp], rdx
	mov	QWORD PTR 48[rbp], r8
	mov	QWORD PTR 56[rbp], r9
	mov	rbx, QWORD PTR 40[rbp]
	mov	rax, QWORD PTR 56[rbp]
	mov	rcx, rax
	call	_ZSt7forwardIRyEOT_RNSt16remove_referenceIS1_E4typeE
	mov	rsi, rax
	mov	rax, QWORD PTR 48[rbp]
	mov	rcx, rax
	call	_ZSt7forwardIRPvEOT_RNSt16remove_referenceIS2_E4typeE
	mov	rdx, rax
	mov	rax, QWORD PTR 32[rbp]
	mov	r9, rsi
	mov	r8, rdx
	mov	rdx, rbx
	mov	rcx, rax
	call	_ZNSt8_Rb_treeIPvSt4pairIKS0_yESt10_Select1stIS3_ESt4lessIS0_ESaIS3_EE17_M_emplace_uniqueIJRS0_RyEEES1_ISt17_Rb_tree_iteratorIS3_EbEDpOT_
	mov	rax, QWORD PTR 32[rbp]
	add	rsp, 32
	pop	rbx
	pop	rsi
	pop	rbp
	ret
	.seh_endproc
	.section	.text$_ZNSaIPvEC1Ev,"x"
	.linkonce discard
	.align 2
	.globl	_ZNSaIPvEC1Ev
	.def	_ZNSaIPvEC1Ev;	.scl	2;	.type	32;	.endef
	.seh_proc	_ZNSaIPvEC1Ev
_ZNSaIPvEC1Ev:
.LFB8681:
	push	rbp
	.seh_pushreg	rbp
	mov	rbp, rsp
	.seh_setframe	rbp, 0
	sub	rsp, 32
	.seh_stackalloc	32
	.seh_endprologue
	mov	QWORD PTR 16[rbp], rcx
	mov	rcx, QWORD PTR 16[rbp]
	call	_ZN9__gnu_cxx13new_allocatorIPvEC2Ev
	nop
	add	rsp, 32
	pop	rbp
	ret
	.seh_endproc
	.section	.text$_ZNSaIPvED2Ev,"x"
	.linkonce discard
	.align 2
	.globl	_ZNSaIPvED2Ev
	.def	_ZNSaIPvED2Ev;	.scl	2;	.type	32;	.endef
	.seh_proc	_ZNSaIPvED2Ev
_ZNSaIPvED2Ev:
.LFB8683:
	push	rbp
	.seh_pushreg	rbp
	mov	rbp, rsp
	.seh_setframe	rbp, 0
	sub	rsp, 32
	.seh_stackalloc	32
	.seh_endprologue
	mov	QWORD PTR 16[rbp], rcx
	mov	rcx, QWORD PTR 16[rbp]
	call	_ZN9__gnu_cxx13new_allocatorIPvED2Ev
	nop
	add	rsp, 32
	pop	rbp
	ret
	.seh_endproc
	.section	.text$_ZNSaIPvED1Ev,"x"
	.linkonce discard
	.align 2
	.globl	_ZNSaIPvED1Ev
	.def	_ZNSaIPvED1Ev;	.scl	2;	.type	32;	.endef
	.seh_proc	_ZNSaIPvED1Ev
_ZNSaIPvED1Ev:
.LFB8684:
	push	rbp
	.seh_pushreg	rbp
	mov	rbp, rsp
	.seh_setframe	rbp, 0
	sub	rsp, 32
	.seh_stackalloc	32
	.seh_endprologue
	mov	QWORD PTR 16[rbp], rcx
	mov	rcx, QWORD PTR 16[rbp]
	call	_ZN9__gnu_cxx13new_allocatorIPvED2Ev
	nop
	add	rsp, 32
	pop	rbp
	ret
	.seh_endproc
	.section	.text$_ZNSt3setIPvSt4lessIS0_ESaIS0_EEC1ESt16initializer_listIS0_ERKS2_RKS3_,"x"
	.linkonce discard
	.align 2
	.globl	_ZNSt3setIPvSt4lessIS0_ESaIS0_EEC1ESt16initializer_listIS0_ERKS2_RKS3_
	.def	_ZNSt3setIPvSt4lessIS0_ESaIS0_EEC1ESt16initializer_listIS0_ERKS2_RKS3_;	.scl	2;	.type	32;	.endef
	.seh_proc	_ZNSt3setIPvSt4lessIS0_ESaIS0_EEC1ESt16initializer_listIS0_ERKS2_RKS3_
_ZNSt3setIPvSt4lessIS0_ESaIS0_EEC1ESt16initializer_listIS0_ERKS2_RKS3_:
.LFB8687:
	push	rbp
	.seh_pushreg	rbp
	push	rsi
	.seh_pushreg	rsi
	push	rbx
	.seh_pushreg	rbx
	mov	rbp, rsp
	.seh_setframe	rbp, 0
	sub	rsp, 64
	.seh_stackalloc	64
	.seh_endprologue
	mov	QWORD PTR 32[rbp], rcx
	mov	rbx, rdx
	mov	rax, QWORD PTR [rbx]
	mov	rdx, QWORD PTR 8[rbx]
	mov	QWORD PTR -32[rbp], rax
	mov	QWORD PTR -24[rbp], rdx
	mov	QWORD PTR 48[rbp], r8
	mov	QWORD PTR 56[rbp], r9
	mov	rbx, QWORD PTR 32[rbp]
	mov	rdx, QWORD PTR 56[rbp]
	lea	rax, -1[rbp]
	mov	rcx, rax
	call	_ZNSaIPvEC1ERKS0_
	lea	rdx, -1[rbp]
	mov	rax, QWORD PTR 48[rbp]
	mov	r8, rdx
	mov	rdx, rax
	mov	rcx, rbx
.LEHB24:
	call	_ZNSt8_Rb_treeIPvS0_St9_IdentityIS0_ESt4lessIS0_ESaIS0_EEC1ERKS4_RKS5_
.LEHE24:
	lea	rax, -1[rbp]
	mov	rcx, rax
	call	_ZNSaIPvED1Ev
	mov	rbx, QWORD PTR 32[rbp]
	lea	rax, -32[rbp]
	mov	rcx, rax
	call	_ZNKSt16initializer_listIPvE3endEv
	mov	rsi, rax
	lea	rax, -32[rbp]
	mov	rcx, rax
	call	_ZNKSt16initializer_listIPvE5beginEv
	mov	r8, rsi
	mov	rdx, rax
	mov	rcx, rbx
.LEHB25:
	call	_ZNSt8_Rb_treeIPvS0_St9_IdentityIS0_ESt4lessIS0_ESaIS0_EE16_M_insert_uniqueIPKS0_EEvT_SA_
.LEHE25:
	jmp	.L193
.L191:
	mov	rbx, rax
	lea	rax, -1[rbp]
	mov	rcx, rax
	call	_ZNSaIPvED1Ev
	mov	rax, rbx
	mov	rcx, rax
.LEHB26:
	call	_Unwind_Resume
.L192:
	mov	rbx, rax
	mov	rax, QWORD PTR 32[rbp]
	mov	rcx, rax
	call	_ZNSt8_Rb_treeIPvS0_St9_IdentityIS0_ESt4lessIS0_ESaIS0_EED1Ev
	mov	rax, rbx
	mov	rcx, rax
	call	_Unwind_Resume
	nop
.LEHE26:
.L193:
	add	rsp, 64
	pop	rbx
	pop	rsi
	pop	rbp
	ret
	.seh_handler	__gxx_personality_seh0, @unwind, @except
	.seh_handlerdata
.LLSDA8687:
	.byte	0xff
	.byte	0xff
	.byte	0x1
	.uleb128 .LLSDACSE8687-.LLSDACSB8687
.LLSDACSB8687:
	.uleb128 .LEHB24-.LFB8687
	.uleb128 .LEHE24-.LEHB24
	.uleb128 .L191-.LFB8687
	.uleb128 0
	.uleb128 .LEHB25-.LFB8687
	.uleb128 .LEHE25-.LEHB25
	.uleb128 .L192-.LFB8687
	.uleb128 0
	.uleb128 .LEHB26-.LFB8687
	.uleb128 .LEHE26-.LEHB26
	.uleb128 0
	.uleb128 0
.LLSDACSE8687:
	.section	.text$_ZNSt3setIPvSt4lessIS0_ESaIS0_EEC1ESt16initializer_listIS0_ERKS2_RKS3_,"x"
	.linkonce discard
	.seh_endproc
	.section	.text$_ZNSt8_Rb_treeIPvS0_St9_IdentityIS0_ESt4lessIS0_ESaIS0_EED1Ev,"x"
	.linkonce discard
	.align 2
	.globl	_ZNSt8_Rb_treeIPvS0_St9_IdentityIS0_ESt4lessIS0_ESaIS0_EED1Ev
	.def	_ZNSt8_Rb_treeIPvS0_St9_IdentityIS0_ESt4lessIS0_ESaIS0_EED1Ev;	.scl	2;	.type	32;	.endef
	.seh_proc	_ZNSt8_Rb_treeIPvS0_St9_IdentityIS0_ESt4lessIS0_ESaIS0_EED1Ev
_ZNSt8_Rb_treeIPvS0_St9_IdentityIS0_ESt4lessIS0_ESaIS0_EED1Ev:
.LFB8690:
	push	rbp
	.seh_pushreg	rbp
	mov	rbp, rsp
	.seh_setframe	rbp, 0
	sub	rsp, 32
	.seh_stackalloc	32
	.seh_endprologue
	mov	QWORD PTR 16[rbp], rcx
	mov	rcx, QWORD PTR 16[rbp]
	call	_ZNSt8_Rb_treeIPvS0_St9_IdentityIS0_ESt4lessIS0_ESaIS0_EE8_M_beginEv
	mov	rdx, rax
	mov	rcx, QWORD PTR 16[rbp]
	call	_ZNSt8_Rb_treeIPvS0_St9_IdentityIS0_ESt4lessIS0_ESaIS0_EE8_M_eraseEPSt13_Rb_tree_nodeIS0_E
	mov	rax, QWORD PTR 16[rbp]
	mov	rcx, rax
	call	_ZNSt8_Rb_treeIPvS0_St9_IdentityIS0_ESt4lessIS0_ESaIS0_EE13_Rb_tree_implIS4_Lb1EED1Ev
	nop
	add	rsp, 32
	pop	rbp
	ret
	.seh_handler	__gxx_personality_seh0, @unwind, @except
	.seh_handlerdata
.LLSDA8690:
	.byte	0xff
	.byte	0xff
	.byte	0x1
	.uleb128 .LLSDACSE8690-.LLSDACSB8690
.LLSDACSB8690:
.LLSDACSE8690:
	.section	.text$_ZNSt8_Rb_treeIPvS0_St9_IdentityIS0_ESt4lessIS0_ESaIS0_EED1Ev,"x"
	.linkonce discard
	.seh_endproc
	.section	.text$_ZNSt3mapIPcSt6vectorIPN3ULR10MemberInfoESaIS4_EENS2_11cmp_chr_ptrESaISt4pairIKS0_S6_EEE5beginEv,"x"
	.linkonce discard
	.align 2
	.globl	_ZNSt3mapIPcSt6vectorIPN3ULR10MemberInfoESaIS4_EENS2_11cmp_chr_ptrESaISt4pairIKS0_S6_EEE5beginEv
	.def	_ZNSt3mapIPcSt6vectorIPN3ULR10MemberInfoESaIS4_EENS2_11cmp_chr_ptrESaISt4pairIKS0_S6_EEE5beginEv;	.scl	2;	.type	32;	.endef
	.seh_proc	_ZNSt3mapIPcSt6vectorIPN3ULR10MemberInfoESaIS4_EENS2_11cmp_chr_ptrESaISt4pairIKS0_S6_EEE5beginEv
_ZNSt3mapIPcSt6vectorIPN3ULR10MemberInfoESaIS4_EENS2_11cmp_chr_ptrESaISt4pairIKS0_S6_EEE5beginEv:
.LFB8691:
	push	rbp
	.seh_pushreg	rbp
	mov	rbp, rsp
	.seh_setframe	rbp, 0
	sub	rsp, 32
	.seh_stackalloc	32
	.seh_endprologue
	mov	QWORD PTR 16[rbp], rcx
	mov	rax, QWORD PTR 16[rbp]
	mov	rcx, rax
	call	_ZNSt8_Rb_treeIPcSt4pairIKS0_St6vectorIPN3ULR10MemberInfoESaIS6_EEESt10_Select1stIS9_ENS4_11cmp_chr_ptrESaIS9_EE5beginEv
	add	rsp, 32
	pop	rbp
	ret
	.seh_endproc
	.section	.text$_ZNSt3mapIPcSt6vectorIPN3ULR10MemberInfoESaIS4_EENS2_11cmp_chr_ptrESaISt4pairIKS0_S6_EEE3endEv,"x"
	.linkonce discard
	.align 2
	.globl	_ZNSt3mapIPcSt6vectorIPN3ULR10MemberInfoESaIS4_EENS2_11cmp_chr_ptrESaISt4pairIKS0_S6_EEE3endEv
	.def	_ZNSt3mapIPcSt6vectorIPN3ULR10MemberInfoESaIS4_EENS2_11cmp_chr_ptrESaISt4pairIKS0_S6_EEE3endEv;	.scl	2;	.type	32;	.endef
	.seh_proc	_ZNSt3mapIPcSt6vectorIPN3ULR10MemberInfoESaIS4_EENS2_11cmp_chr_ptrESaISt4pairIKS0_S6_EEE3endEv
_ZNSt3mapIPcSt6vectorIPN3ULR10MemberInfoESaIS4_EENS2_11cmp_chr_ptrESaISt4pairIKS0_S6_EEE3endEv:
.LFB8692:
	push	rbp
	.seh_pushreg	rbp
	mov	rbp, rsp
	.seh_setframe	rbp, 0
	sub	rsp, 32
	.seh_stackalloc	32
	.seh_endprologue
	mov	QWORD PTR 16[rbp], rcx
	mov	rax, QWORD PTR 16[rbp]
	mov	rcx, rax
	call	_ZNSt8_Rb_treeIPcSt4pairIKS0_St6vectorIPN3ULR10MemberInfoESaIS6_EEESt10_Select1stIS9_ENS4_11cmp_chr_ptrESaIS9_EE3endEv
	add	rsp, 32
	pop	rbp
	ret
	.seh_endproc
	.section	.text$_ZNKSt17_Rb_tree_iteratorISt4pairIKPcSt6vectorIPN3ULR10MemberInfoESaIS6_EEEEneERKSA_,"x"
	.linkonce discard
	.align 2
	.globl	_ZNKSt17_Rb_tree_iteratorISt4pairIKPcSt6vectorIPN3ULR10MemberInfoESaIS6_EEEEneERKSA_
	.def	_ZNKSt17_Rb_tree_iteratorISt4pairIKPcSt6vectorIPN3ULR10MemberInfoESaIS6_EEEEneERKSA_;	.scl	2;	.type	32;	.endef
	.seh_proc	_ZNKSt17_Rb_tree_iteratorISt4pairIKPcSt6vectorIPN3ULR10MemberInfoESaIS6_EEEEneERKSA_
_ZNKSt17_Rb_tree_iteratorISt4pairIKPcSt6vectorIPN3ULR10MemberInfoESaIS6_EEEEneERKSA_:
.LFB8693:
	push	rbp
	.seh_pushreg	rbp
	mov	rbp, rsp
	.seh_setframe	rbp, 0
	.seh_endprologue
	mov	QWORD PTR 16[rbp], rcx
	mov	QWORD PTR 24[rbp], rdx
	mov	rax, QWORD PTR 16[rbp]
	mov	rdx, QWORD PTR [rax]
	mov	rax, QWORD PTR 24[rbp]
	mov	rax, QWORD PTR [rax]
	cmp	rdx, rax
	setne	al
	pop	rbp
	ret
	.seh_endproc
	.section	.text$_ZNSt17_Rb_tree_iteratorISt4pairIKPcSt6vectorIPN3ULR10MemberInfoESaIS6_EEEEppEv,"x"
	.linkonce discard
	.align 2
	.globl	_ZNSt17_Rb_tree_iteratorISt4pairIKPcSt6vectorIPN3ULR10MemberInfoESaIS6_EEEEppEv
	.def	_ZNSt17_Rb_tree_iteratorISt4pairIKPcSt6vectorIPN3ULR10MemberInfoESaIS6_EEEEppEv;	.scl	2;	.type	32;	.endef
	.seh_proc	_ZNSt17_Rb_tree_iteratorISt4pairIKPcSt6vectorIPN3ULR10MemberInfoESaIS6_EEEEppEv
_ZNSt17_Rb_tree_iteratorISt4pairIKPcSt6vectorIPN3ULR10MemberInfoESaIS6_EEEEppEv:
.LFB8694:
	push	rbp
	.seh_pushreg	rbp
	mov	rbp, rsp
	.seh_setframe	rbp, 0
	sub	rsp, 32
	.seh_stackalloc	32
	.seh_endprologue
	mov	QWORD PTR 16[rbp], rcx
	mov	rax, QWORD PTR 16[rbp]
	mov	rax, QWORD PTR [rax]
	mov	rcx, rax
	call	_ZSt18_Rb_tree_incrementPSt18_Rb_tree_node_base
	mov	rdx, rax
	mov	rax, QWORD PTR 16[rbp]
	mov	QWORD PTR [rax], rdx
	mov	rax, QWORD PTR 16[rbp]
	add	rsp, 32
	pop	rbp
	ret
	.seh_endproc
	.section	.text$_ZNKSt17_Rb_tree_iteratorISt4pairIKPcSt6vectorIPN3ULR10MemberInfoESaIS6_EEEEdeEv,"x"
	.linkonce discard
	.align 2
	.globl	_ZNKSt17_Rb_tree_iteratorISt4pairIKPcSt6vectorIPN3ULR10MemberInfoESaIS6_EEEEdeEv
	.def	_ZNKSt17_Rb_tree_iteratorISt4pairIKPcSt6vectorIPN3ULR10MemberInfoESaIS6_EEEEdeEv;	.scl	2;	.type	32;	.endef
	.seh_proc	_ZNKSt17_Rb_tree_iteratorISt4pairIKPcSt6vectorIPN3ULR10MemberInfoESaIS6_EEEEdeEv
_ZNKSt17_Rb_tree_iteratorISt4pairIKPcSt6vectorIPN3ULR10MemberInfoESaIS6_EEEEdeEv:
.LFB8695:
	push	rbp
	.seh_pushreg	rbp
	mov	rbp, rsp
	.seh_setframe	rbp, 0
	sub	rsp, 32
	.seh_stackalloc	32
	.seh_endprologue
	mov	QWORD PTR 16[rbp], rcx
	mov	rax, QWORD PTR 16[rbp]
	mov	rax, QWORD PTR [rax]
	mov	rcx, rax
	call	_ZNSt13_Rb_tree_nodeISt4pairIKPcSt6vectorIPN3ULR10MemberInfoESaIS6_EEEE9_M_valptrEv
	add	rsp, 32
	pop	rbp
	ret
	.seh_endproc
	.section	.text$_ZNKSt3setIPvSt4lessIS0_ESaIS0_EE5countERKS0_,"x"
	.linkonce discard
	.align 2
	.globl	_ZNKSt3setIPvSt4lessIS0_ESaIS0_EE5countERKS0_
	.def	_ZNKSt3setIPvSt4lessIS0_ESaIS0_EE5countERKS0_;	.scl	2;	.type	32;	.endef
	.seh_proc	_ZNKSt3setIPvSt4lessIS0_ESaIS0_EE5countERKS0_
_ZNKSt3setIPvSt4lessIS0_ESaIS0_EE5countERKS0_:
.LFB8696:
	push	rbp
	.seh_pushreg	rbp
	mov	rbp, rsp
	.seh_setframe	rbp, 0
	sub	rsp, 48
	.seh_stackalloc	48
	.seh_endprologue
	mov	QWORD PTR 16[rbp], rcx
	mov	QWORD PTR 24[rbp], rdx
	mov	rax, QWORD PTR 16[rbp]
	mov	rcx, rax
	call	_ZNKSt8_Rb_treeIPvS0_St9_IdentityIS0_ESt4lessIS0_ESaIS0_EE3endEv
	mov	QWORD PTR -16[rbp], rax
	mov	rax, QWORD PTR 16[rbp]
	mov	rdx, QWORD PTR 24[rbp]
	mov	rcx, rax
	call	_ZNKSt8_Rb_treeIPvS0_St9_IdentityIS0_ESt4lessIS0_ESaIS0_EE4findERKS0_
	mov	QWORD PTR -8[rbp], rax
	lea	rdx, -16[rbp]
	lea	rax, -8[rbp]
	mov	rcx, rax
	call	_ZNKSt23_Rb_tree_const_iteratorIPvEeqERKS1_
	test	al, al
	je	.L206
	mov	eax, 0
	jmp	.L208
.L206:
	mov	eax, 1
.L208:
	add	rsp, 48
	pop	rbp
	ret
	.seh_endproc
	.section	.text$_ZNSaISt13_Rb_tree_nodeIPvEEC2ERKS2_,"x"
	.linkonce discard
	.align 2
	.globl	_ZNSaISt13_Rb_tree_nodeIPvEEC2ERKS2_
	.def	_ZNSaISt13_Rb_tree_nodeIPvEEC2ERKS2_;	.scl	2;	.type	32;	.endef
	.seh_proc	_ZNSaISt13_Rb_tree_nodeIPvEEC2ERKS2_
_ZNSaISt13_Rb_tree_nodeIPvEEC2ERKS2_:
.LFB8698:
	push	rbp
	.seh_pushreg	rbp
	mov	rbp, rsp
	.seh_setframe	rbp, 0
	sub	rsp, 32
	.seh_stackalloc	32
	.seh_endprologue
	mov	QWORD PTR 16[rbp], rcx
	mov	QWORD PTR 24[rbp], rdx
	mov	rax, QWORD PTR 24[rbp]
	mov	rdx, rax
	mov	rcx, QWORD PTR 16[rbp]
	call	_ZN9__gnu_cxx13new_allocatorISt13_Rb_tree_nodeIPvEEC2ERKS4_
	nop
	add	rsp, 32
	pop	rbp
	ret
	.seh_endproc
	.section	.text$_ZNSaISt13_Rb_tree_nodeIPvEEC1ERKS2_,"x"
	.linkonce discard
	.align 2
	.globl	_ZNSaISt13_Rb_tree_nodeIPvEEC1ERKS2_
	.def	_ZNSaISt13_Rb_tree_nodeIPvEEC1ERKS2_;	.scl	2;	.type	32;	.endef
	.seh_proc	_ZNSaISt13_Rb_tree_nodeIPvEEC1ERKS2_
_ZNSaISt13_Rb_tree_nodeIPvEEC1ERKS2_:
.LFB8699:
	push	rbp
	.seh_pushreg	rbp
	mov	rbp, rsp
	.seh_setframe	rbp, 0
	sub	rsp, 32
	.seh_stackalloc	32
	.seh_endprologue
	mov	QWORD PTR 16[rbp], rcx
	mov	QWORD PTR 24[rbp], rdx
	mov	rax, QWORD PTR 24[rbp]
	mov	rdx, rax
	mov	rcx, QWORD PTR 16[rbp]
	call	_ZN9__gnu_cxx13new_allocatorISt13_Rb_tree_nodeIPvEEC2ERKS4_
	nop
	add	rsp, 32
	pop	rbp
	ret
	.seh_endproc
	.section	.text$_ZNSaISt13_Rb_tree_nodeIPvEED2Ev,"x"
	.linkonce discard
	.align 2
	.globl	_ZNSaISt13_Rb_tree_nodeIPvEED2Ev
	.def	_ZNSaISt13_Rb_tree_nodeIPvEED2Ev;	.scl	2;	.type	32;	.endef
	.seh_proc	_ZNSaISt13_Rb_tree_nodeIPvEED2Ev
_ZNSaISt13_Rb_tree_nodeIPvEED2Ev:
.LFB8701:
	push	rbp
	.seh_pushreg	rbp
	mov	rbp, rsp
	.seh_setframe	rbp, 0
	sub	rsp, 32
	.seh_stackalloc	32
	.seh_endprologue
	mov	QWORD PTR 16[rbp], rcx
	mov	rcx, QWORD PTR 16[rbp]
	call	_ZN9__gnu_cxx13new_allocatorISt13_Rb_tree_nodeIPvEED2Ev
	nop
	add	rsp, 32
	pop	rbp
	ret
	.seh_endproc
	.section	.text$_ZNSaISt13_Rb_tree_nodeIPvEED1Ev,"x"
	.linkonce discard
	.align 2
	.globl	_ZNSaISt13_Rb_tree_nodeIPvEED1Ev
	.def	_ZNSaISt13_Rb_tree_nodeIPvEED1Ev;	.scl	2;	.type	32;	.endef
	.seh_proc	_ZNSaISt13_Rb_tree_nodeIPvEED1Ev
_ZNSaISt13_Rb_tree_nodeIPvEED1Ev:
.LFB8702:
	push	rbp
	.seh_pushreg	rbp
	mov	rbp, rsp
	.seh_setframe	rbp, 0
	sub	rsp, 32
	.seh_stackalloc	32
	.seh_endprologue
	mov	QWORD PTR 16[rbp], rcx
	mov	rcx, QWORD PTR 16[rbp]
	call	_ZN9__gnu_cxx13new_allocatorISt13_Rb_tree_nodeIPvEED2Ev
	nop
	add	rsp, 32
	pop	rbp
	ret
	.seh_endproc
	.section	.text$_ZNKSt3setIPvSt4lessIS0_ESaIS0_EE5beginEv,"x"
	.linkonce discard
	.align 2
	.globl	_ZNKSt3setIPvSt4lessIS0_ESaIS0_EE5beginEv
	.def	_ZNKSt3setIPvSt4lessIS0_ESaIS0_EE5beginEv;	.scl	2;	.type	32;	.endef
	.seh_proc	_ZNKSt3setIPvSt4lessIS0_ESaIS0_EE5beginEv
_ZNKSt3setIPvSt4lessIS0_ESaIS0_EE5beginEv:
.LFB8706:
	push	rbp
	.seh_pushreg	rbp
	mov	rbp, rsp
	.seh_setframe	rbp, 0
	sub	rsp, 32
	.seh_stackalloc	32
	.seh_endprologue
	mov	QWORD PTR 16[rbp], rcx
	mov	rax, QWORD PTR 16[rbp]
	mov	rcx, rax
	call	_ZNKSt8_Rb_treeIPvS0_St9_IdentityIS0_ESt4lessIS0_ESaIS0_EE5beginEv
	add	rsp, 32
	pop	rbp
	ret
	.seh_endproc
	.section	.text$_ZNKSt3setIPvSt4lessIS0_ESaIS0_EE3endEv,"x"
	.linkonce discard
	.align 2
	.globl	_ZNKSt3setIPvSt4lessIS0_ESaIS0_EE3endEv
	.def	_ZNKSt3setIPvSt4lessIS0_ESaIS0_EE3endEv;	.scl	2;	.type	32;	.endef
	.seh_proc	_ZNKSt3setIPvSt4lessIS0_ESaIS0_EE3endEv
_ZNKSt3setIPvSt4lessIS0_ESaIS0_EE3endEv:
.LFB8707:
	push	rbp
	.seh_pushreg	rbp
	mov	rbp, rsp
	.seh_setframe	rbp, 0
	sub	rsp, 32
	.seh_stackalloc	32
	.seh_endprologue
	mov	QWORD PTR 16[rbp], rcx
	mov	rax, QWORD PTR 16[rbp]
	mov	rcx, rax
	call	_ZNKSt8_Rb_treeIPvS0_St9_IdentityIS0_ESt4lessIS0_ESaIS0_EE3endEv
	add	rsp, 32
	pop	rbp
	ret
	.seh_endproc
	.section	.text$_ZNSt3setIPvSt4lessIS0_ESaIS0_EE6insertISt23_Rb_tree_const_iteratorIS0_EEEvT_S8_,"x"
	.linkonce discard
	.align 2
	.globl	_ZNSt3setIPvSt4lessIS0_ESaIS0_EE6insertISt23_Rb_tree_const_iteratorIS0_EEEvT_S8_
	.def	_ZNSt3setIPvSt4lessIS0_ESaIS0_EE6insertISt23_Rb_tree_const_iteratorIS0_EEEvT_S8_;	.scl	2;	.type	32;	.endef
	.seh_proc	_ZNSt3setIPvSt4lessIS0_ESaIS0_EE6insertISt23_Rb_tree_const_iteratorIS0_EEEvT_S8_
_ZNSt3setIPvSt4lessIS0_ESaIS0_EE6insertISt23_Rb_tree_const_iteratorIS0_EEEvT_S8_:
.LFB8708:
	push	rbp
	.seh_pushreg	rbp
	mov	rbp, rsp
	.seh_setframe	rbp, 0
	sub	rsp, 32
	.seh_stackalloc	32
	.seh_endprologue
	mov	QWORD PTR 16[rbp], rcx
	mov	QWORD PTR 24[rbp], rdx
	mov	QWORD PTR 32[rbp], r8
	mov	rax, QWORD PTR 16[rbp]
	mov	rcx, QWORD PTR 32[rbp]
	mov	rdx, QWORD PTR 24[rbp]
	mov	r8, rcx
	mov	rcx, rax
	call	_ZNSt8_Rb_treeIPvS0_St9_IdentityIS0_ESt4lessIS0_ESaIS0_EE16_M_insert_uniqueISt23_Rb_tree_const_iteratorIS0_EEEvT_SA_
	nop
	add	rsp, 32
	pop	rbp
	ret
	.seh_endproc
	.section	.text$_ZNSt8_Rb_treeIPvS0_St9_IdentityIS0_ESt4lessIS0_ESaIS0_EE13_Rb_tree_implIS4_Lb1EEC1Ev,"x"
	.linkonce discard
	.align 2
	.globl	_ZNSt8_Rb_treeIPvS0_St9_IdentityIS0_ESt4lessIS0_ESaIS0_EE13_Rb_tree_implIS4_Lb1EEC1Ev
	.def	_ZNSt8_Rb_treeIPvS0_St9_IdentityIS0_ESt4lessIS0_ESaIS0_EE13_Rb_tree_implIS4_Lb1EEC1Ev;	.scl	2;	.type	32;	.endef
	.seh_proc	_ZNSt8_Rb_treeIPvS0_St9_IdentityIS0_ESt4lessIS0_ESaIS0_EE13_Rb_tree_implIS4_Lb1EEC1Ev
_ZNSt8_Rb_treeIPvS0_St9_IdentityIS0_ESt4lessIS0_ESaIS0_EE13_Rb_tree_implIS4_Lb1EEC1Ev:
.LFB8711:
	push	rbp
	.seh_pushreg	rbp
	mov	rbp, rsp
	.seh_setframe	rbp, 0
	sub	rsp, 32
	.seh_stackalloc	32
	.seh_endprologue
	mov	QWORD PTR 16[rbp], rcx
	mov	rcx, QWORD PTR 16[rbp]
	call	_ZNSaISt13_Rb_tree_nodeIPvEEC2Ev
	mov	rax, QWORD PTR 16[rbp]
	mov	rcx, rax
	call	_ZNSt20_Rb_tree_key_compareISt4lessIPvEEC2Ev
	mov	rax, QWORD PTR 16[rbp]
	add	rax, 8
	mov	rcx, rax
	call	_ZNSt15_Rb_tree_headerC2Ev
	nop
	add	rsp, 32
	pop	rbp
	ret
	.seh_endproc
	.section	.text$_ZNKSt23_Rb_tree_const_iteratorIPvEneERKS1_,"x"
	.linkonce discard
	.align 2
	.globl	_ZNKSt23_Rb_tree_const_iteratorIPvEneERKS1_
	.def	_ZNKSt23_Rb_tree_const_iteratorIPvEneERKS1_;	.scl	2;	.type	32;	.endef
	.seh_proc	_ZNKSt23_Rb_tree_const_iteratorIPvEneERKS1_
_ZNKSt23_Rb_tree_const_iteratorIPvEneERKS1_:
.LFB8712:
	push	rbp
	.seh_pushreg	rbp
	mov	rbp, rsp
	.seh_setframe	rbp, 0
	.seh_endprologue
	mov	QWORD PTR 16[rbp], rcx
	mov	QWORD PTR 24[rbp], rdx
	mov	rax, QWORD PTR 16[rbp]
	mov	rdx, QWORD PTR [rax]
	mov	rax, QWORD PTR 24[rbp]
	mov	rax, QWORD PTR [rax]
	cmp	rdx, rax
	setne	al
	pop	rbp
	ret
	.seh_endproc
	.section	.text$_ZNSt23_Rb_tree_const_iteratorIPvEppEv,"x"
	.linkonce discard
	.align 2
	.globl	_ZNSt23_Rb_tree_const_iteratorIPvEppEv
	.def	_ZNSt23_Rb_tree_const_iteratorIPvEppEv;	.scl	2;	.type	32;	.endef
	.seh_proc	_ZNSt23_Rb_tree_const_iteratorIPvEppEv
_ZNSt23_Rb_tree_const_iteratorIPvEppEv:
.LFB8713:
	push	rbp
	.seh_pushreg	rbp
	mov	rbp, rsp
	.seh_setframe	rbp, 0
	sub	rsp, 32
	.seh_stackalloc	32
	.seh_endprologue
	mov	QWORD PTR 16[rbp], rcx
	mov	rax, QWORD PTR 16[rbp]
	mov	rax, QWORD PTR [rax]
	mov	rcx, rax
	call	_ZSt18_Rb_tree_incrementPKSt18_Rb_tree_node_base
	mov	rdx, rax
	mov	rax, QWORD PTR 16[rbp]
	mov	QWORD PTR [rax], rdx
	mov	rax, QWORD PTR 16[rbp]
	add	rsp, 32
	pop	rbp
	ret
	.seh_endproc
	.section	.text$_ZNKSt23_Rb_tree_const_iteratorIPvEdeEv,"x"
	.linkonce discard
	.align 2
	.globl	_ZNKSt23_Rb_tree_const_iteratorIPvEdeEv
	.def	_ZNKSt23_Rb_tree_const_iteratorIPvEdeEv;	.scl	2;	.type	32;	.endef
	.seh_proc	_ZNKSt23_Rb_tree_const_iteratorIPvEdeEv
_ZNKSt23_Rb_tree_const_iteratorIPvEdeEv:
.LFB8714:
	push	rbp
	.seh_pushreg	rbp
	mov	rbp, rsp
	.seh_setframe	rbp, 0
	sub	rsp, 32
	.seh_stackalloc	32
	.seh_endprologue
	mov	QWORD PTR 16[rbp], rcx
	mov	rax, QWORD PTR 16[rbp]
	mov	rax, QWORD PTR [rax]
	mov	rcx, rax
	call	_ZNKSt13_Rb_tree_nodeIPvE9_M_valptrEv
	add	rsp, 32
	pop	rbp
	ret
	.seh_endproc
	.section	.text$_ZNSt3setIPvSt4lessIS0_ESaIS0_EE7emplaceIJRS0_EEESt4pairISt23_Rb_tree_const_iteratorIS0_EbEDpOT_,"x"
	.linkonce discard
	.align 2
	.globl	_ZNSt3setIPvSt4lessIS0_ESaIS0_EE7emplaceIJRS0_EEESt4pairISt23_Rb_tree_const_iteratorIS0_EbEDpOT_
	.def	_ZNSt3setIPvSt4lessIS0_ESaIS0_EE7emplaceIJRS0_EEESt4pairISt23_Rb_tree_const_iteratorIS0_EbEDpOT_;	.scl	2;	.type	32;	.endef
	.seh_proc	_ZNSt3setIPvSt4lessIS0_ESaIS0_EE7emplaceIJRS0_EEESt4pairISt23_Rb_tree_const_iteratorIS0_EbEDpOT_
_ZNSt3setIPvSt4lessIS0_ESaIS0_EE7emplaceIJRS0_EEESt4pairISt23_Rb_tree_const_iteratorIS0_EbEDpOT_:
.LFB8715:
	push	rbp
	.seh_pushreg	rbp
	push	rbx
	.seh_pushreg	rbx
	sub	rsp, 56
	.seh_stackalloc	56
	lea	rbp, 128[rsp]
	.seh_setframe	rbp, 128
	.seh_endprologue
	mov	QWORD PTR -48[rbp], rcx
	mov	QWORD PTR -40[rbp], rdx
	mov	QWORD PTR -32[rbp], r8
	mov	rbx, QWORD PTR -40[rbp]
	mov	rax, QWORD PTR -32[rbp]
	mov	rcx, rax
	call	_ZSt7forwardIRPvEOT_RNSt16remove_referenceIS2_E4typeE
	mov	rdx, rax
	lea	rax, -96[rbp]
	mov	r8, rdx
	mov	rdx, rbx
	mov	rcx, rax
	call	_ZNSt8_Rb_treeIPvS0_St9_IdentityIS0_ESt4lessIS0_ESaIS0_EE17_M_emplace_uniqueIJRS0_EEESt4pairISt17_Rb_tree_iteratorIS0_EbEDpOT_
	lea	rax, -96[rbp]
	mov	rdx, rax
	mov	rcx, QWORD PTR -48[rbp]
	call	_ZNSt4pairISt23_Rb_tree_const_iteratorIPvEbEC1ISt17_Rb_tree_iteratorIS1_EbLb1EEEOS_IT_T0_E
	mov	rax, QWORD PTR -48[rbp]
	add	rsp, 56
	pop	rbx
	pop	rbp
	ret
	.seh_endproc
	.section	.text$_ZNSt3mapIPcPN3ULR4TypeENS1_11cmp_chr_ptrESaISt4pairIKS0_S3_EEE5beginEv,"x"
	.linkonce discard
	.align 2
	.globl	_ZNSt3mapIPcPN3ULR4TypeENS1_11cmp_chr_ptrESaISt4pairIKS0_S3_EEE5beginEv
	.def	_ZNSt3mapIPcPN3ULR4TypeENS1_11cmp_chr_ptrESaISt4pairIKS0_S3_EEE5beginEv;	.scl	2;	.type	32;	.endef
	.seh_proc	_ZNSt3mapIPcPN3ULR4TypeENS1_11cmp_chr_ptrESaISt4pairIKS0_S3_EEE5beginEv
_ZNSt3mapIPcPN3ULR4TypeENS1_11cmp_chr_ptrESaISt4pairIKS0_S3_EEE5beginEv:
.LFB8724:
	push	rbp
	.seh_pushreg	rbp
	mov	rbp, rsp
	.seh_setframe	rbp, 0
	sub	rsp, 32
	.seh_stackalloc	32
	.seh_endprologue
	mov	QWORD PTR 16[rbp], rcx
	mov	rax, QWORD PTR 16[rbp]
	mov	rcx, rax
	call	_ZNSt8_Rb_treeIPcSt4pairIKS0_PN3ULR4TypeEESt10_Select1stIS6_ENS3_11cmp_chr_ptrESaIS6_EE5beginEv
	add	rsp, 32
	pop	rbp
	ret
	.seh_endproc
	.section	.text$_ZNSt3mapIPcPN3ULR4TypeENS1_11cmp_chr_ptrESaISt4pairIKS0_S3_EEE3endEv,"x"
	.linkonce discard
	.align 2
	.globl	_ZNSt3mapIPcPN3ULR4TypeENS1_11cmp_chr_ptrESaISt4pairIKS0_S3_EEE3endEv
	.def	_ZNSt3mapIPcPN3ULR4TypeENS1_11cmp_chr_ptrESaISt4pairIKS0_S3_EEE3endEv;	.scl	2;	.type	32;	.endef
	.seh_proc	_ZNSt3mapIPcPN3ULR4TypeENS1_11cmp_chr_ptrESaISt4pairIKS0_S3_EEE3endEv
_ZNSt3mapIPcPN3ULR4TypeENS1_11cmp_chr_ptrESaISt4pairIKS0_S3_EEE3endEv:
.LFB8725:
	push	rbp
	.seh_pushreg	rbp
	mov	rbp, rsp
	.seh_setframe	rbp, 0
	sub	rsp, 32
	.seh_stackalloc	32
	.seh_endprologue
	mov	QWORD PTR 16[rbp], rcx
	mov	rax, QWORD PTR 16[rbp]
	mov	rcx, rax
	call	_ZNSt8_Rb_treeIPcSt4pairIKS0_PN3ULR4TypeEESt10_Select1stIS6_ENS3_11cmp_chr_ptrESaIS6_EE3endEv
	add	rsp, 32
	pop	rbp
	ret
	.seh_endproc
	.section	.text$_ZNKSt17_Rb_tree_iteratorISt4pairIKPcPN3ULR4TypeEEEneERKS7_,"x"
	.linkonce discard
	.align 2
	.globl	_ZNKSt17_Rb_tree_iteratorISt4pairIKPcPN3ULR4TypeEEEneERKS7_
	.def	_ZNKSt17_Rb_tree_iteratorISt4pairIKPcPN3ULR4TypeEEEneERKS7_;	.scl	2;	.type	32;	.endef
	.seh_proc	_ZNKSt17_Rb_tree_iteratorISt4pairIKPcPN3ULR4TypeEEEneERKS7_
_ZNKSt17_Rb_tree_iteratorISt4pairIKPcPN3ULR4TypeEEEneERKS7_:
.LFB8726:
	push	rbp
	.seh_pushreg	rbp
	mov	rbp, rsp
	.seh_setframe	rbp, 0
	.seh_endprologue
	mov	QWORD PTR 16[rbp], rcx
	mov	QWORD PTR 24[rbp], rdx
	mov	rax, QWORD PTR 16[rbp]
	mov	rdx, QWORD PTR [rax]
	mov	rax, QWORD PTR 24[rbp]
	mov	rax, QWORD PTR [rax]
	cmp	rdx, rax
	setne	al
	pop	rbp
	ret
	.seh_endproc
	.section	.text$_ZNSt17_Rb_tree_iteratorISt4pairIKPcPN3ULR4TypeEEEppEv,"x"
	.linkonce discard
	.align 2
	.globl	_ZNSt17_Rb_tree_iteratorISt4pairIKPcPN3ULR4TypeEEEppEv
	.def	_ZNSt17_Rb_tree_iteratorISt4pairIKPcPN3ULR4TypeEEEppEv;	.scl	2;	.type	32;	.endef
	.seh_proc	_ZNSt17_Rb_tree_iteratorISt4pairIKPcPN3ULR4TypeEEEppEv
_ZNSt17_Rb_tree_iteratorISt4pairIKPcPN3ULR4TypeEEEppEv:
.LFB8727:
	push	rbp
	.seh_pushreg	rbp
	mov	rbp, rsp
	.seh_setframe	rbp, 0
	sub	rsp, 32
	.seh_stackalloc	32
	.seh_endprologue
	mov	QWORD PTR 16[rbp], rcx
	mov	rax, QWORD PTR 16[rbp]
	mov	rax, QWORD PTR [rax]
	mov	rcx, rax
	call	_ZSt18_Rb_tree_incrementPSt18_Rb_tree_node_base
	mov	rdx, rax
	mov	rax, QWORD PTR 16[rbp]
	mov	QWORD PTR [rax], rdx
	mov	rax, QWORD PTR 16[rbp]
	add	rsp, 32
	pop	rbp
	ret
	.seh_endproc
	.section	.text$_ZNKSt17_Rb_tree_iteratorISt4pairIKPcPN3ULR4TypeEEEdeEv,"x"
	.linkonce discard
	.align 2
	.globl	_ZNKSt17_Rb_tree_iteratorISt4pairIKPcPN3ULR4TypeEEEdeEv
	.def	_ZNKSt17_Rb_tree_iteratorISt4pairIKPcPN3ULR4TypeEEEdeEv;	.scl	2;	.type	32;	.endef
	.seh_proc	_ZNKSt17_Rb_tree_iteratorISt4pairIKPcPN3ULR4TypeEEEdeEv
_ZNKSt17_Rb_tree_iteratorISt4pairIKPcPN3ULR4TypeEEEdeEv:
.LFB8728:
	push	rbp
	.seh_pushreg	rbp
	mov	rbp, rsp
	.seh_setframe	rbp, 0
	sub	rsp, 32
	.seh_stackalloc	32
	.seh_endprologue
	mov	QWORD PTR 16[rbp], rcx
	mov	rax, QWORD PTR 16[rbp]
	mov	rax, QWORD PTR [rax]
	mov	rcx, rax
	call	_ZNSt13_Rb_tree_nodeISt4pairIKPcPN3ULR4TypeEEE9_M_valptrEv
	add	rsp, 32
	pop	rbp
	ret
	.seh_endproc
	.section	.text$_ZNSt8_Rb_treeIPvS0_St9_IdentityIS0_ESt4lessIS0_ESaIS0_EEC1ERKS6_,"x"
	.linkonce discard
	.align 2
	.globl	_ZNSt8_Rb_treeIPvS0_St9_IdentityIS0_ESt4lessIS0_ESaIS0_EEC1ERKS6_
	.def	_ZNSt8_Rb_treeIPvS0_St9_IdentityIS0_ESt4lessIS0_ESaIS0_EEC1ERKS6_;	.scl	2;	.type	32;	.endef
	.seh_proc	_ZNSt8_Rb_treeIPvS0_St9_IdentityIS0_ESt4lessIS0_ESaIS0_EEC1ERKS6_
_ZNSt8_Rb_treeIPvS0_St9_IdentityIS0_ESt4lessIS0_ESaIS0_EEC1ERKS6_:
.LFB8731:
	push	rbp
	.seh_pushreg	rbp
	push	rbx
	.seh_pushreg	rbx
	sub	rsp, 40
	.seh_stackalloc	40
	lea	rbp, 128[rsp]
	.seh_setframe	rbp, 128
	.seh_endprologue
	mov	QWORD PTR -64[rbp], rcx
	mov	QWORD PTR -56[rbp], rdx
	mov	rax, QWORD PTR -64[rbp]
	mov	rdx, QWORD PTR -56[rbp]
	mov	rcx, rax
.LEHB27:
	call	_ZNSt8_Rb_treeIPvS0_St9_IdentityIS0_ESt4lessIS0_ESaIS0_EE13_Rb_tree_implIS4_Lb1EEC1ERKS8_
.LEHE27:
	mov	rax, QWORD PTR -56[rbp]
	mov	rcx, rax
	call	_ZNKSt8_Rb_treeIPvS0_St9_IdentityIS0_ESt4lessIS0_ESaIS0_EE7_M_rootEv
	test	rax, rax
	setne	al
	test	al, al
	je	.L241
	mov	rcx, QWORD PTR -64[rbp]
	call	_ZNSt8_Rb_treeIPvS0_St9_IdentityIS0_ESt4lessIS0_ESaIS0_EE7_M_rootEv
	mov	rbx, rax
	mov	rax, QWORD PTR -56[rbp]
	mov	rdx, rax
	mov	rcx, QWORD PTR -64[rbp]
.LEHB28:
	call	_ZNSt8_Rb_treeIPvS0_St9_IdentityIS0_ESt4lessIS0_ESaIS0_EE7_M_copyERKS6_
.LEHE28:
	mov	QWORD PTR [rbx], rax
	jmp	.L241
.L240:
	mov	rbx, rax
	mov	rax, QWORD PTR -64[rbp]
	mov	rcx, rax
	call	_ZNSt8_Rb_treeIPvS0_St9_IdentityIS0_ESt4lessIS0_ESaIS0_EE13_Rb_tree_implIS4_Lb1EED1Ev
	mov	rax, rbx
	mov	rcx, rax
.LEHB29:
	call	_Unwind_Resume
.LEHE29:
.L241:
	nop
	add	rsp, 40
	pop	rbx
	pop	rbp
	ret
	.seh_handler	__gxx_personality_seh0, @unwind, @except
	.seh_handlerdata
.LLSDA8731:
	.byte	0xff
	.byte	0xff
	.byte	0x1
	.uleb128 .LLSDACSE8731-.LLSDACSB8731
.LLSDACSB8731:
	.uleb128 .LEHB27-.LFB8731
	.uleb128 .LEHE27-.LEHB27
	.uleb128 0
	.uleb128 0
	.uleb128 .LEHB28-.LFB8731
	.uleb128 .LEHE28-.LEHB28
	.uleb128 .L240-.LFB8731
	.uleb128 0
	.uleb128 .LEHB29-.LFB8731
	.uleb128 .LEHE29-.LEHB29
	.uleb128 0
	.uleb128 0
.LLSDACSE8731:
	.section	.text$_ZNSt8_Rb_treeIPvS0_St9_IdentityIS0_ESt4lessIS0_ESaIS0_EEC1ERKS6_,"x"
	.linkonce discard
	.seh_endproc
	.section	.text$_ZNSt8_Rb_treeIPvSt4pairIKS0_yESt10_Select1stIS3_ESt4lessIS0_ESaIS3_EE13_Rb_tree_implIS7_Lb1EED1Ev,"x"
	.linkonce discard
	.align 2
	.globl	_ZNSt8_Rb_treeIPvSt4pairIKS0_yESt10_Select1stIS3_ESt4lessIS0_ESaIS3_EE13_Rb_tree_implIS7_Lb1EED1Ev
	.def	_ZNSt8_Rb_treeIPvSt4pairIKS0_yESt10_Select1stIS3_ESt4lessIS0_ESaIS3_EE13_Rb_tree_implIS7_Lb1EED1Ev;	.scl	2;	.type	32;	.endef
	.seh_proc	_ZNSt8_Rb_treeIPvSt4pairIKS0_yESt10_Select1stIS3_ESt4lessIS0_ESaIS3_EE13_Rb_tree_implIS7_Lb1EED1Ev
_ZNSt8_Rb_treeIPvSt4pairIKS0_yESt10_Select1stIS3_ESt4lessIS0_ESaIS3_EE13_Rb_tree_implIS7_Lb1EED1Ev:
.LFB8735:
	push	rbp
	.seh_pushreg	rbp
	mov	rbp, rsp
	.seh_setframe	rbp, 0
	sub	rsp, 32
	.seh_stackalloc	32
	.seh_endprologue
	mov	QWORD PTR 16[rbp], rcx
	mov	rcx, QWORD PTR 16[rbp]
	call	_ZNSaISt13_Rb_tree_nodeISt4pairIKPvyEEED2Ev
	nop
	add	rsp, 32
	pop	rbp
	ret
	.seh_endproc
	.section	.text$_ZNSt8_Rb_treeIPvSt4pairIKS0_yESt10_Select1stIS3_ESt4lessIS0_ESaIS3_EEC1ERKS9_,"x"
	.linkonce discard
	.align 2
	.globl	_ZNSt8_Rb_treeIPvSt4pairIKS0_yESt10_Select1stIS3_ESt4lessIS0_ESaIS3_EEC1ERKS9_
	.def	_ZNSt8_Rb_treeIPvSt4pairIKS0_yESt10_Select1stIS3_ESt4lessIS0_ESaIS3_EEC1ERKS9_;	.scl	2;	.type	32;	.endef
	.seh_proc	_ZNSt8_Rb_treeIPvSt4pairIKS0_yESt10_Select1stIS3_ESt4lessIS0_ESaIS3_EEC1ERKS9_
_ZNSt8_Rb_treeIPvSt4pairIKS0_yESt10_Select1stIS3_ESt4lessIS0_ESaIS3_EEC1ERKS9_:
.LFB8737:
	push	rbp
	.seh_pushreg	rbp
	push	rbx
	.seh_pushreg	rbx
	sub	rsp, 40
	.seh_stackalloc	40
	lea	rbp, 128[rsp]
	.seh_setframe	rbp, 128
	.seh_endprologue
	mov	QWORD PTR -64[rbp], rcx
	mov	QWORD PTR -56[rbp], rdx
	mov	rax, QWORD PTR -64[rbp]
	mov	rdx, QWORD PTR -56[rbp]
	mov	rcx, rax
.LEHB30:
	call	_ZNSt8_Rb_treeIPvSt4pairIKS0_yESt10_Select1stIS3_ESt4lessIS0_ESaIS3_EE13_Rb_tree_implIS7_Lb1EEC1ERKSB_
.LEHE30:
	mov	rax, QWORD PTR -56[rbp]
	mov	rcx, rax
	call	_ZNKSt8_Rb_treeIPvSt4pairIKS0_yESt10_Select1stIS3_ESt4lessIS0_ESaIS3_EE7_M_rootEv
	test	rax, rax
	setne	al
	test	al, al
	je	.L247
	mov	rcx, QWORD PTR -64[rbp]
	call	_ZNSt8_Rb_treeIPvSt4pairIKS0_yESt10_Select1stIS3_ESt4lessIS0_ESaIS3_EE7_M_rootEv
	mov	rbx, rax
	mov	rax, QWORD PTR -56[rbp]
	mov	rdx, rax
	mov	rcx, QWORD PTR -64[rbp]
.LEHB31:
	call	_ZNSt8_Rb_treeIPvSt4pairIKS0_yESt10_Select1stIS3_ESt4lessIS0_ESaIS3_EE7_M_copyERKS9_
.LEHE31:
	mov	QWORD PTR [rbx], rax
	jmp	.L247
.L246:
	mov	rbx, rax
	mov	rax, QWORD PTR -64[rbp]
	mov	rcx, rax
	call	_ZNSt8_Rb_treeIPvSt4pairIKS0_yESt10_Select1stIS3_ESt4lessIS0_ESaIS3_EE13_Rb_tree_implIS7_Lb1EED1Ev
	mov	rax, rbx
	mov	rcx, rax
.LEHB32:
	call	_Unwind_Resume
.LEHE32:
.L247:
	nop
	add	rsp, 40
	pop	rbx
	pop	rbp
	ret
	.seh_handler	__gxx_personality_seh0, @unwind, @except
	.seh_handlerdata
.LLSDA8737:
	.byte	0xff
	.byte	0xff
	.byte	0x1
	.uleb128 .LLSDACSE8737-.LLSDACSB8737
.LLSDACSB8737:
	.uleb128 .LEHB30-.LFB8737
	.uleb128 .LEHE30-.LEHB30
	.uleb128 0
	.uleb128 0
	.uleb128 .LEHB31-.LFB8737
	.uleb128 .LEHE31-.LEHB31
	.uleb128 .L246-.LFB8737
	.uleb128 0
	.uleb128 .LEHB32-.LFB8737
	.uleb128 .LEHE32-.LEHB32
	.uleb128 0
	.uleb128 0
.LLSDACSE8737:
	.section	.text$_ZNSt8_Rb_treeIPvSt4pairIKS0_yESt10_Select1stIS3_ESt4lessIS0_ESaIS3_EEC1ERKS9_,"x"
	.linkonce discard
	.seh_endproc
	.section	.text$_ZNSt8_Rb_treeIPvSt4pairIKS0_yESt10_Select1stIS3_ESt4lessIS0_ESaIS3_EED1Ev,"x"
	.linkonce discard
	.align 2
	.globl	_ZNSt8_Rb_treeIPvSt4pairIKS0_yESt10_Select1stIS3_ESt4lessIS0_ESaIS3_EED1Ev
	.def	_ZNSt8_Rb_treeIPvSt4pairIKS0_yESt10_Select1stIS3_ESt4lessIS0_ESaIS3_EED1Ev;	.scl	2;	.type	32;	.endef
	.seh_proc	_ZNSt8_Rb_treeIPvSt4pairIKS0_yESt10_Select1stIS3_ESt4lessIS0_ESaIS3_EED1Ev
_ZNSt8_Rb_treeIPvSt4pairIKS0_yESt10_Select1stIS3_ESt4lessIS0_ESaIS3_EED1Ev:
.LFB8740:
	push	rbp
	.seh_pushreg	rbp
	mov	rbp, rsp
	.seh_setframe	rbp, 0
	sub	rsp, 32
	.seh_stackalloc	32
	.seh_endprologue
	mov	QWORD PTR 16[rbp], rcx
	mov	rcx, QWORD PTR 16[rbp]
	call	_ZNSt8_Rb_treeIPvSt4pairIKS0_yESt10_Select1stIS3_ESt4lessIS0_ESaIS3_EE8_M_beginEv
	mov	rdx, rax
	mov	rcx, QWORD PTR 16[rbp]
	call	_ZNSt8_Rb_treeIPvSt4pairIKS0_yESt10_Select1stIS3_ESt4lessIS0_ESaIS3_EE8_M_eraseEPSt13_Rb_tree_nodeIS3_E
	mov	rax, QWORD PTR 16[rbp]
	mov	rcx, rax
	call	_ZNSt8_Rb_treeIPvSt4pairIKS0_yESt10_Select1stIS3_ESt4lessIS0_ESaIS3_EE13_Rb_tree_implIS7_Lb1EED1Ev
	nop
	add	rsp, 32
	pop	rbp
	ret
	.seh_handler	__gxx_personality_seh0, @unwind, @except
	.seh_handlerdata
.LLSDA8740:
	.byte	0xff
	.byte	0xff
	.byte	0x1
	.uleb128 .LLSDACSE8740-.LLSDACSB8740
.LLSDACSB8740:
.LLSDACSE8740:
	.section	.text$_ZNSt8_Rb_treeIPvSt4pairIKS0_yESt10_Select1stIS3_ESt4lessIS0_ESaIS3_EED1Ev,"x"
	.linkonce discard
	.seh_endproc
	.section	.text$_ZNSt3mapIPvySt4lessIS0_ESaISt4pairIKS0_yEEE5beginEv,"x"
	.linkonce discard
	.align 2
	.globl	_ZNSt3mapIPvySt4lessIS0_ESaISt4pairIKS0_yEEE5beginEv
	.def	_ZNSt3mapIPvySt4lessIS0_ESaISt4pairIKS0_yEEE5beginEv;	.scl	2;	.type	32;	.endef
	.seh_proc	_ZNSt3mapIPvySt4lessIS0_ESaISt4pairIKS0_yEEE5beginEv
_ZNSt3mapIPvySt4lessIS0_ESaISt4pairIKS0_yEEE5beginEv:
.LFB8741:
	push	rbp
	.seh_pushreg	rbp
	mov	rbp, rsp
	.seh_setframe	rbp, 0
	sub	rsp, 32
	.seh_stackalloc	32
	.seh_endprologue
	mov	QWORD PTR 16[rbp], rcx
	mov	rax, QWORD PTR 16[rbp]
	mov	rcx, rax
	call	_ZNSt8_Rb_treeIPvSt4pairIKS0_yESt10_Select1stIS3_ESt4lessIS0_ESaIS3_EE5beginEv
	add	rsp, 32
	pop	rbp
	ret
	.seh_endproc
	.section	.text$_ZNSt3mapIPvySt4lessIS0_ESaISt4pairIKS0_yEEE3endEv,"x"
	.linkonce discard
	.align 2
	.globl	_ZNSt3mapIPvySt4lessIS0_ESaISt4pairIKS0_yEEE3endEv
	.def	_ZNSt3mapIPvySt4lessIS0_ESaISt4pairIKS0_yEEE3endEv;	.scl	2;	.type	32;	.endef
	.seh_proc	_ZNSt3mapIPvySt4lessIS0_ESaISt4pairIKS0_yEEE3endEv
_ZNSt3mapIPvySt4lessIS0_ESaISt4pairIKS0_yEEE3endEv:
.LFB8742:
	push	rbp
	.seh_pushreg	rbp
	mov	rbp, rsp
	.seh_setframe	rbp, 0
	sub	rsp, 32
	.seh_stackalloc	32
	.seh_endprologue
	mov	QWORD PTR 16[rbp], rcx
	mov	rax, QWORD PTR 16[rbp]
	mov	rcx, rax
	call	_ZNSt8_Rb_treeIPvSt4pairIKS0_yESt10_Select1stIS3_ESt4lessIS0_ESaIS3_EE3endEv
	add	rsp, 32
	pop	rbp
	ret
	.seh_endproc
	.section	.text$_ZNKSt17_Rb_tree_iteratorISt4pairIKPvyEEneERKS4_,"x"
	.linkonce discard
	.align 2
	.globl	_ZNKSt17_Rb_tree_iteratorISt4pairIKPvyEEneERKS4_
	.def	_ZNKSt17_Rb_tree_iteratorISt4pairIKPvyEEneERKS4_;	.scl	2;	.type	32;	.endef
	.seh_proc	_ZNKSt17_Rb_tree_iteratorISt4pairIKPvyEEneERKS4_
_ZNKSt17_Rb_tree_iteratorISt4pairIKPvyEEneERKS4_:
.LFB8743:
	push	rbp
	.seh_pushreg	rbp
	mov	rbp, rsp
	.seh_setframe	rbp, 0
	.seh_endprologue
	mov	QWORD PTR 16[rbp], rcx
	mov	QWORD PTR 24[rbp], rdx
	mov	rax, QWORD PTR 16[rbp]
	mov	rdx, QWORD PTR [rax]
	mov	rax, QWORD PTR 24[rbp]
	mov	rax, QWORD PTR [rax]
	cmp	rdx, rax
	setne	al
	pop	rbp
	ret
	.seh_endproc
	.section	.text$_ZNSt17_Rb_tree_iteratorISt4pairIKPvyEEppEv,"x"
	.linkonce discard
	.align 2
	.globl	_ZNSt17_Rb_tree_iteratorISt4pairIKPvyEEppEv
	.def	_ZNSt17_Rb_tree_iteratorISt4pairIKPvyEEppEv;	.scl	2;	.type	32;	.endef
	.seh_proc	_ZNSt17_Rb_tree_iteratorISt4pairIKPvyEEppEv
_ZNSt17_Rb_tree_iteratorISt4pairIKPvyEEppEv:
.LFB8744:
	push	rbp
	.seh_pushreg	rbp
	mov	rbp, rsp
	.seh_setframe	rbp, 0
	sub	rsp, 32
	.seh_stackalloc	32
	.seh_endprologue
	mov	QWORD PTR 16[rbp], rcx
	mov	rax, QWORD PTR 16[rbp]
	mov	rax, QWORD PTR [rax]
	mov	rcx, rax
	call	_ZSt18_Rb_tree_incrementPSt18_Rb_tree_node_base
	mov	rdx, rax
	mov	rax, QWORD PTR 16[rbp]
	mov	QWORD PTR [rax], rdx
	mov	rax, QWORD PTR 16[rbp]
	add	rsp, 32
	pop	rbp
	ret
	.seh_endproc
	.section	.text$_ZNKSt17_Rb_tree_iteratorISt4pairIKPvyEEdeEv,"x"
	.linkonce discard
	.align 2
	.globl	_ZNKSt17_Rb_tree_iteratorISt4pairIKPvyEEdeEv
	.def	_ZNKSt17_Rb_tree_iteratorISt4pairIKPvyEEdeEv;	.scl	2;	.type	32;	.endef
	.seh_proc	_ZNKSt17_Rb_tree_iteratorISt4pairIKPvyEEdeEv
_ZNKSt17_Rb_tree_iteratorISt4pairIKPvyEEdeEv:
.LFB8745:
	push	rbp
	.seh_pushreg	rbp
	mov	rbp, rsp
	.seh_setframe	rbp, 0
	sub	rsp, 32
	.seh_stackalloc	32
	.seh_endprologue
	mov	QWORD PTR 16[rbp], rcx
	mov	rax, QWORD PTR 16[rbp]
	mov	rax, QWORD PTR [rax]
	mov	rcx, rax
	call	_ZNSt13_Rb_tree_nodeISt4pairIKPvyEE9_M_valptrEv
	add	rsp, 32
	pop	rbp
	ret
	.seh_endproc
	.section	.text$_ZNSt3mapIPvySt4lessIS0_ESaISt4pairIKS0_yEEE5eraseERS4_,"x"
	.linkonce discard
	.align 2
	.globl	_ZNSt3mapIPvySt4lessIS0_ESaISt4pairIKS0_yEEE5eraseERS4_
	.def	_ZNSt3mapIPvySt4lessIS0_ESaISt4pairIKS0_yEEE5eraseERS4_;	.scl	2;	.type	32;	.endef
	.seh_proc	_ZNSt3mapIPvySt4lessIS0_ESaISt4pairIKS0_yEEE5eraseERS4_
_ZNSt3mapIPvySt4lessIS0_ESaISt4pairIKS0_yEEE5eraseERS4_:
.LFB8746:
	push	rbp
	.seh_pushreg	rbp
	mov	rbp, rsp
	.seh_setframe	rbp, 0
	sub	rsp, 32
	.seh_stackalloc	32
	.seh_endprologue
	mov	QWORD PTR 16[rbp], rcx
	mov	QWORD PTR 24[rbp], rdx
	mov	rax, QWORD PTR 16[rbp]
	mov	rdx, QWORD PTR 24[rbp]
	mov	rcx, rax
	call	_ZNSt8_Rb_treeIPvSt4pairIKS0_yESt10_Select1stIS3_ESt4lessIS0_ESaIS3_EE5eraseERS2_
	add	rsp, 32
	pop	rbp
	ret
	.seh_endproc
	.section	.text$_ZNSt6vectorIPN3ULR4TypeESaIS2_EEC1ERKS4_,"x"
	.linkonce discard
	.align 2
	.globl	_ZNSt6vectorIPN3ULR4TypeESaIS2_EEC1ERKS4_
	.def	_ZNSt6vectorIPN3ULR4TypeESaIS2_EEC1ERKS4_;	.scl	2;	.type	32;	.endef
	.seh_proc	_ZNSt6vectorIPN3ULR4TypeESaIS2_EEC1ERKS4_
_ZNSt6vectorIPN3ULR4TypeESaIS2_EEC1ERKS4_:
.LFB8749:
	push	rbp
	.seh_pushreg	rbp
	push	rdi
	.seh_pushreg	rdi
	push	rsi
	.seh_pushreg	rsi
	push	rbx
	.seh_pushreg	rbx
	sub	rsp, 56
	.seh_stackalloc	56
	lea	rbp, 128[rsp]
	.seh_setframe	rbp, 128
	.seh_endprologue
	mov	QWORD PTR -32[rbp], rcx
	mov	QWORD PTR -24[rbp], rdx
	mov	rbx, QWORD PTR -32[rbp]
	mov	rax, QWORD PTR -24[rbp]
	mov	rcx, rax
	call	_ZNKSt12_Vector_baseIPN3ULR4TypeESaIS2_EE19_M_get_Tp_allocatorEv
	mov	rdx, rax
	lea	rax, -81[rbp]
	mov	rcx, rax
.LEHB33:
	call	_ZN9__gnu_cxx14__alloc_traitsISaIPN3ULR4TypeEES3_E17_S_select_on_copyERKS4_
.LEHE33:
	mov	rax, QWORD PTR -24[rbp]
	mov	rcx, rax
	call	_ZNKSt6vectorIPN3ULR4TypeESaIS2_EE4sizeEv
	mov	rdx, rax
	lea	rax, -81[rbp]
	mov	r8, rax
	mov	rcx, rbx
.LEHB34:
	call	_ZNSt12_Vector_baseIPN3ULR4TypeESaIS2_EEC2EyRKS3_
.LEHE34:
	lea	rax, -81[rbp]
	mov	rcx, rax
	call	_ZNSaIPN3ULR4TypeEED1Ev
	mov	rax, QWORD PTR -32[rbp]
	mov	rcx, rax
	call	_ZNSt12_Vector_baseIPN3ULR4TypeESaIS2_EE19_M_get_Tp_allocatorEv
	mov	rdi, rax
	mov	rax, QWORD PTR -32[rbp]
	mov	rbx, QWORD PTR [rax]
	mov	rax, QWORD PTR -24[rbp]
	mov	rcx, rax
	call	_ZNKSt6vectorIPN3ULR4TypeESaIS2_EE3endEv
	mov	rsi, rax
	mov	rax, QWORD PTR -24[rbp]
	mov	rcx, rax
	call	_ZNKSt6vectorIPN3ULR4TypeESaIS2_EE5beginEv
	mov	r9, rdi
	mov	r8, rbx
	mov	rdx, rsi
	mov	rcx, rax
.LEHB35:
	call	_ZSt22__uninitialized_copy_aIN9__gnu_cxx17__normal_iteratorIPKPN3ULR4TypeESt6vectorIS4_SaIS4_EEEEPS4_S4_ET0_T_SD_SC_RSaIT1_E
.LEHE35:
	mov	rdx, rax
	mov	rax, QWORD PTR -32[rbp]
	mov	QWORD PTR 8[rax], rdx
	jmp	.L266
.L264:
	mov	rbx, rax
	lea	rax, -81[rbp]
	mov	rcx, rax
	call	_ZNSaIPN3ULR4TypeEED1Ev
	mov	rax, rbx
	mov	rcx, rax
.LEHB36:
	call	_Unwind_Resume
.L265:
	mov	rbx, rax
	mov	rax, QWORD PTR -32[rbp]
	mov	rcx, rax
	call	_ZNSt12_Vector_baseIPN3ULR4TypeESaIS2_EED2Ev
	mov	rax, rbx
	mov	rcx, rax
	call	_Unwind_Resume
	nop
.LEHE36:
.L266:
	add	rsp, 56
	pop	rbx
	pop	rsi
	pop	rdi
	pop	rbp
	ret
	.seh_handler	__gxx_personality_seh0, @unwind, @except
	.seh_handlerdata
.LLSDA8749:
	.byte	0xff
	.byte	0xff
	.byte	0x1
	.uleb128 .LLSDACSE8749-.LLSDACSB8749
.LLSDACSB8749:
	.uleb128 .LEHB33-.LFB8749
	.uleb128 .LEHE33-.LEHB33
	.uleb128 0
	.uleb128 0
	.uleb128 .LEHB34-.LFB8749
	.uleb128 .LEHE34-.LEHB34
	.uleb128 .L264-.LFB8749
	.uleb128 0
	.uleb128 .LEHB35-.LFB8749
	.uleb128 .LEHE35-.LEHB35
	.uleb128 .L265-.LFB8749
	.uleb128 0
	.uleb128 .LEHB36-.LFB8749
	.uleb128 .LEHE36-.LEHB36
	.uleb128 0
	.uleb128 0
.LLSDACSE8749:
	.section	.text$_ZNSt6vectorIPN3ULR4TypeESaIS2_EEC1ERKS4_,"x"
	.linkonce discard
	.seh_endproc
	.section	.text$_ZNSt6vectorIPN3ULR4TypeESaIS2_EED1Ev,"x"
	.linkonce discard
	.align 2
	.globl	_ZNSt6vectorIPN3ULR4TypeESaIS2_EED1Ev
	.def	_ZNSt6vectorIPN3ULR4TypeESaIS2_EED1Ev;	.scl	2;	.type	32;	.endef
	.seh_proc	_ZNSt6vectorIPN3ULR4TypeESaIS2_EED1Ev
_ZNSt6vectorIPN3ULR4TypeESaIS2_EED1Ev:
.LFB8752:
	push	rbp
	.seh_pushreg	rbp
	mov	rbp, rsp
	.seh_setframe	rbp, 0
	sub	rsp, 32
	.seh_stackalloc	32
	.seh_endprologue
	mov	QWORD PTR 16[rbp], rcx
	mov	rax, QWORD PTR 16[rbp]
	mov	rcx, rax
	call	_ZNSt12_Vector_baseIPN3ULR4TypeESaIS2_EE19_M_get_Tp_allocatorEv
	mov	rcx, rax
	mov	rax, QWORD PTR 16[rbp]
	mov	rdx, QWORD PTR 8[rax]
	mov	rax, QWORD PTR 16[rbp]
	mov	rax, QWORD PTR [rax]
	mov	r8, rcx
	mov	rcx, rax
	call	_ZSt8_DestroyIPPN3ULR4TypeES2_EvT_S4_RSaIT0_E
	mov	rax, QWORD PTR 16[rbp]
	mov	rcx, rax
	call	_ZNSt12_Vector_baseIPN3ULR4TypeESaIS2_EED2Ev
	nop
	add	rsp, 32
	pop	rbp
	ret
	.seh_handler	__gxx_personality_seh0, @unwind, @except
	.seh_handlerdata
.LLSDA8752:
	.byte	0xff
	.byte	0xff
	.byte	0x1
	.uleb128 .LLSDACSE8752-.LLSDACSB8752
.LLSDACSB8752:
.LLSDACSE8752:
	.section	.text$_ZNSt6vectorIPN3ULR4TypeESaIS2_EED1Ev,"x"
	.linkonce discard
	.seh_endproc
	.section	.text$_ZNSt6vectorIPvSaIS0_EE5beginEv,"x"
	.linkonce discard
	.align 2
	.globl	_ZNSt6vectorIPvSaIS0_EE5beginEv
	.def	_ZNSt6vectorIPvSaIS0_EE5beginEv;	.scl	2;	.type	32;	.endef
	.seh_proc	_ZNSt6vectorIPvSaIS0_EE5beginEv
_ZNSt6vectorIPvSaIS0_EE5beginEv:
.LFB8753:
	push	rbp
	.seh_pushreg	rbp
	mov	rbp, rsp
	.seh_setframe	rbp, 0
	sub	rsp, 48
	.seh_stackalloc	48
	.seh_endprologue
	mov	QWORD PTR 16[rbp], rcx
	mov	rdx, QWORD PTR 16[rbp]
	lea	rax, -8[rbp]
	mov	rcx, rax
	call	_ZN9__gnu_cxx17__normal_iteratorIPPvSt6vectorIS1_SaIS1_EEEC1ERKS2_
	mov	rax, QWORD PTR -8[rbp]
	add	rsp, 48
	pop	rbp
	ret
	.seh_endproc
	.section	.text$_ZN9__gnu_cxx17__normal_iteratorIPKPvSt6vectorIS1_SaIS1_EEEC1IPS1_EERKNS0_IT_NS_11__enable_ifIXsrSt10__are_sameISA_S9_E7__valueES6_E6__typeEEE,"x"
	.linkonce discard
	.align 2
	.globl	_ZN9__gnu_cxx17__normal_iteratorIPKPvSt6vectorIS1_SaIS1_EEEC1IPS1_EERKNS0_IT_NS_11__enable_ifIXsrSt10__are_sameISA_S9_E7__valueES6_E6__typeEEE
	.def	_ZN9__gnu_cxx17__normal_iteratorIPKPvSt6vectorIS1_SaIS1_EEEC1IPS1_EERKNS0_IT_NS_11__enable_ifIXsrSt10__are_sameISA_S9_E7__valueES6_E6__typeEEE;	.scl	2;	.type	32;	.endef
	.seh_proc	_ZN9__gnu_cxx17__normal_iteratorIPKPvSt6vectorIS1_SaIS1_EEEC1IPS1_EERKNS0_IT_NS_11__enable_ifIXsrSt10__are_sameISA_S9_E7__valueES6_E6__typeEEE
_ZN9__gnu_cxx17__normal_iteratorIPKPvSt6vectorIS1_SaIS1_EEEC1IPS1_EERKNS0_IT_NS_11__enable_ifIXsrSt10__are_sameISA_S9_E7__valueES6_E6__typeEEE:
.LFB8756:
	push	rbp
	.seh_pushreg	rbp
	mov	rbp, rsp
	.seh_setframe	rbp, 0
	sub	rsp, 32
	.seh_stackalloc	32
	.seh_endprologue
	mov	QWORD PTR 16[rbp], rcx
	mov	QWORD PTR 24[rbp], rdx
	mov	rax, QWORD PTR 24[rbp]
	mov	rcx, rax
	call	_ZNK9__gnu_cxx17__normal_iteratorIPPvSt6vectorIS1_SaIS1_EEE4baseEv
	mov	rdx, QWORD PTR [rax]
	mov	rax, QWORD PTR 16[rbp]
	mov	QWORD PTR [rax], rdx
	nop
	add	rsp, 32
	pop	rbp
	ret
	.seh_endproc
	.section	.text$_ZNSt6vectorIPvSaIS0_EE7emplaceIJRS0_EEEN9__gnu_cxx17__normal_iteratorIPS0_S2_EENS6_IPKS0_S2_EEDpOT_,"x"
	.linkonce discard
	.align 2
	.globl	_ZNSt6vectorIPvSaIS0_EE7emplaceIJRS0_EEEN9__gnu_cxx17__normal_iteratorIPS0_S2_EENS6_IPKS0_S2_EEDpOT_
	.def	_ZNSt6vectorIPvSaIS0_EE7emplaceIJRS0_EEEN9__gnu_cxx17__normal_iteratorIPS0_S2_EENS6_IPKS0_S2_EEDpOT_;	.scl	2;	.type	32;	.endef
	.seh_proc	_ZNSt6vectorIPvSaIS0_EE7emplaceIJRS0_EEEN9__gnu_cxx17__normal_iteratorIPS0_S2_EENS6_IPKS0_S2_EEDpOT_
_ZNSt6vectorIPvSaIS0_EE7emplaceIJRS0_EEEN9__gnu_cxx17__normal_iteratorIPS0_S2_EENS6_IPKS0_S2_EEDpOT_:
.LFB8757:
	push	rbp
	.seh_pushreg	rbp
	mov	rbp, rsp
	.seh_setframe	rbp, 0
	sub	rsp, 32
	.seh_stackalloc	32
	.seh_endprologue
	mov	QWORD PTR 16[rbp], rcx
	mov	QWORD PTR 24[rbp], rdx
	mov	QWORD PTR 32[rbp], r8
	mov	rax, QWORD PTR 32[rbp]
	mov	rcx, rax
	call	_ZSt7forwardIRPvEOT_RNSt16remove_referenceIS2_E4typeE
	mov	rdx, rax
	mov	rax, QWORD PTR 24[rbp]
	mov	r8, rdx
	mov	rdx, rax
	mov	rcx, QWORD PTR 16[rbp]
	call	_ZNSt6vectorIPvSaIS0_EE14_M_emplace_auxIJRS0_EEEN9__gnu_cxx17__normal_iteratorIPS0_S2_EENS6_IPKS0_S2_EEDpOT_
	add	rsp, 32
	pop	rbp
	ret
	.seh_endproc
	.section	.text$_ZNSt6vectorIPN3ULR4TypeESaIS2_EE5beginEv,"x"
	.linkonce discard
	.align 2
	.globl	_ZNSt6vectorIPN3ULR4TypeESaIS2_EE5beginEv
	.def	_ZNSt6vectorIPN3ULR4TypeESaIS2_EE5beginEv;	.scl	2;	.type	32;	.endef
	.seh_proc	_ZNSt6vectorIPN3ULR4TypeESaIS2_EE5beginEv
_ZNSt6vectorIPN3ULR4TypeESaIS2_EE5beginEv:
.LFB8758:
	push	rbp
	.seh_pushreg	rbp
	mov	rbp, rsp
	.seh_setframe	rbp, 0
	sub	rsp, 48
	.seh_stackalloc	48
	.seh_endprologue
	mov	QWORD PTR 16[rbp], rcx
	mov	rdx, QWORD PTR 16[rbp]
	lea	rax, -8[rbp]
	mov	rcx, rax
	call	_ZN9__gnu_cxx17__normal_iteratorIPPN3ULR4TypeESt6vectorIS3_SaIS3_EEEC1ERKS4_
	mov	rax, QWORD PTR -8[rbp]
	add	rsp, 48
	pop	rbp
	ret
	.seh_endproc
	.section	.text$_ZN9__gnu_cxx17__normal_iteratorIPKPN3ULR4TypeESt6vectorIS3_SaIS3_EEEC1IPS3_EERKNS0_IT_NS_11__enable_ifIXsrSt10__are_sameISC_SB_E7__valueES8_E6__typeEEE,"x"
	.linkonce discard
	.align 2
	.globl	_ZN9__gnu_cxx17__normal_iteratorIPKPN3ULR4TypeESt6vectorIS3_SaIS3_EEEC1IPS3_EERKNS0_IT_NS_11__enable_ifIXsrSt10__are_sameISC_SB_E7__valueES8_E6__typeEEE
	.def	_ZN9__gnu_cxx17__normal_iteratorIPKPN3ULR4TypeESt6vectorIS3_SaIS3_EEEC1IPS3_EERKNS0_IT_NS_11__enable_ifIXsrSt10__are_sameISC_SB_E7__valueES8_E6__typeEEE;	.scl	2;	.type	32;	.endef
	.seh_proc	_ZN9__gnu_cxx17__normal_iteratorIPKPN3ULR4TypeESt6vectorIS3_SaIS3_EEEC1IPS3_EERKNS0_IT_NS_11__enable_ifIXsrSt10__are_sameISC_SB_E7__valueES8_E6__typeEEE
_ZN9__gnu_cxx17__normal_iteratorIPKPN3ULR4TypeESt6vectorIS3_SaIS3_EEEC1IPS3_EERKNS0_IT_NS_11__enable_ifIXsrSt10__are_sameISC_SB_E7__valueES8_E6__typeEEE:
.LFB8761:
	push	rbp
	.seh_pushreg	rbp
	mov	rbp, rsp
	.seh_setframe	rbp, 0
	sub	rsp, 32
	.seh_stackalloc	32
	.seh_endprologue
	mov	QWORD PTR 16[rbp], rcx
	mov	QWORD PTR 24[rbp], rdx
	mov	rax, QWORD PTR 24[rbp]
	mov	rcx, rax
	call	_ZNK9__gnu_cxx17__normal_iteratorIPPN3ULR4TypeESt6vectorIS3_SaIS3_EEE4baseEv
	mov	rdx, QWORD PTR [rax]
	mov	rax, QWORD PTR 16[rbp]
	mov	QWORD PTR [rax], rdx
	nop
	add	rsp, 32
	pop	rbp
	ret
	.seh_endproc
	.section	.text$_ZNSt6vectorIPN3ULR4TypeESaIS2_EE7emplaceIJRS2_EEEN9__gnu_cxx17__normal_iteratorIPS2_S4_EENS8_IPKS2_S4_EEDpOT_,"x"
	.linkonce discard
	.align 2
	.globl	_ZNSt6vectorIPN3ULR4TypeESaIS2_EE7emplaceIJRS2_EEEN9__gnu_cxx17__normal_iteratorIPS2_S4_EENS8_IPKS2_S4_EEDpOT_
	.def	_ZNSt6vectorIPN3ULR4TypeESaIS2_EE7emplaceIJRS2_EEEN9__gnu_cxx17__normal_iteratorIPS2_S4_EENS8_IPKS2_S4_EEDpOT_;	.scl	2;	.type	32;	.endef
	.seh_proc	_ZNSt6vectorIPN3ULR4TypeESaIS2_EE7emplaceIJRS2_EEEN9__gnu_cxx17__normal_iteratorIPS2_S4_EENS8_IPKS2_S4_EEDpOT_
_ZNSt6vectorIPN3ULR4TypeESaIS2_EE7emplaceIJRS2_EEEN9__gnu_cxx17__normal_iteratorIPS2_S4_EENS8_IPKS2_S4_EEDpOT_:
.LFB8762:
	push	rbp
	.seh_pushreg	rbp
	mov	rbp, rsp
	.seh_setframe	rbp, 0
	sub	rsp, 32
	.seh_stackalloc	32
	.seh_endprologue
	mov	QWORD PTR 16[rbp], rcx
	mov	QWORD PTR 24[rbp], rdx
	mov	QWORD PTR 32[rbp], r8
	mov	rax, QWORD PTR 32[rbp]
	mov	rcx, rax
	call	_ZSt7forwardIRPN3ULR4TypeEEOT_RNSt16remove_referenceIS4_E4typeE
	mov	rdx, rax
	mov	rax, QWORD PTR 24[rbp]
	mov	r8, rdx
	mov	rdx, rax
	mov	rcx, QWORD PTR 16[rbp]
	call	_ZNSt6vectorIPN3ULR4TypeESaIS2_EE14_M_emplace_auxIJRS2_EEEN9__gnu_cxx17__normal_iteratorIPS2_S4_EENS8_IPKS2_S4_EEDpOT_
	add	rsp, 32
	pop	rbp
	ret
	.seh_endproc
	.section	.text$_ZNKSt6vectorIPvSaIS0_EE4sizeEv,"x"
	.linkonce discard
	.align 2
	.globl	_ZNKSt6vectorIPvSaIS0_EE4sizeEv
	.def	_ZNKSt6vectorIPvSaIS0_EE4sizeEv;	.scl	2;	.type	32;	.endef
	.seh_proc	_ZNKSt6vectorIPvSaIS0_EE4sizeEv
_ZNKSt6vectorIPvSaIS0_EE4sizeEv:
.LFB8763:
	push	rbp
	.seh_pushreg	rbp
	mov	rbp, rsp
	.seh_setframe	rbp, 0
	.seh_endprologue
	mov	QWORD PTR 16[rbp], rcx
	mov	rax, QWORD PTR 16[rbp]
	mov	rdx, QWORD PTR 8[rax]
	mov	rax, QWORD PTR 16[rbp]
	mov	rax, QWORD PTR [rax]
	sub	rdx, rax
	mov	rax, rdx
	sar	rax, 3
	pop	rbp
	ret
	.seh_endproc
	.section	.text$_ZNSt6vectorIPvSaIS0_EEC1EyRKS1_,"x"
	.linkonce discard
	.align 2
	.globl	_ZNSt6vectorIPvSaIS0_EEC1EyRKS1_
	.def	_ZNSt6vectorIPvSaIS0_EEC1EyRKS1_;	.scl	2;	.type	32;	.endef
	.seh_proc	_ZNSt6vectorIPvSaIS0_EEC1EyRKS1_
_ZNSt6vectorIPvSaIS0_EEC1EyRKS1_:
.LFB8766:
	push	rbp
	.seh_pushreg	rbp
	push	rbx
	.seh_pushreg	rbx
	sub	rsp, 40
	.seh_stackalloc	40
	lea	rbp, 128[rsp]
	.seh_setframe	rbp, 128
	.seh_endprologue
	mov	QWORD PTR -64[rbp], rcx
	mov	QWORD PTR -56[rbp], rdx
	mov	QWORD PTR -48[rbp], r8
	mov	rax, QWORD PTR -64[rbp]
	mov	rcx, QWORD PTR -48[rbp]
	mov	rdx, QWORD PTR -56[rbp]
	mov	r8, rcx
	mov	rcx, rax
.LEHB37:
	call	_ZNSt12_Vector_baseIPvSaIS0_EEC2EyRKS1_
.LEHE37:
	mov	rax, QWORD PTR -56[rbp]
	mov	rdx, rax
	mov	rcx, QWORD PTR -64[rbp]
.LEHB38:
	call	_ZNSt6vectorIPvSaIS0_EE21_M_default_initializeEy
.LEHE38:
	jmp	.L283
.L282:
	mov	rbx, rax
	mov	rax, QWORD PTR -64[rbp]
	mov	rcx, rax
	call	_ZNSt12_Vector_baseIPvSaIS0_EED2Ev
	mov	rax, rbx
	mov	rcx, rax
.LEHB39:
	call	_Unwind_Resume
	nop
.LEHE39:
.L283:
	add	rsp, 40
	pop	rbx
	pop	rbp
	ret
	.seh_handler	__gxx_personality_seh0, @unwind, @except
	.seh_handlerdata
.LLSDA8766:
	.byte	0xff
	.byte	0xff
	.byte	0x1
	.uleb128 .LLSDACSE8766-.LLSDACSB8766
.LLSDACSB8766:
	.uleb128 .LEHB37-.LFB8766
	.uleb128 .LEHE37-.LEHB37
	.uleb128 0
	.uleb128 0
	.uleb128 .LEHB38-.LFB8766
	.uleb128 .LEHE38-.LEHB38
	.uleb128 .L282-.LFB8766
	.uleb128 0
	.uleb128 .LEHB39-.LFB8766
	.uleb128 .LEHE39-.LEHB39
	.uleb128 0
	.uleb128 0
.LLSDACSE8766:
	.section	.text$_ZNSt6vectorIPvSaIS0_EEC1EyRKS1_,"x"
	.linkonce discard
	.seh_endproc
	.section	.text$_ZNSt6vectorIPvSaIS0_EED1Ev,"x"
	.linkonce discard
	.align 2
	.globl	_ZNSt6vectorIPvSaIS0_EED1Ev
	.def	_ZNSt6vectorIPvSaIS0_EED1Ev;	.scl	2;	.type	32;	.endef
	.seh_proc	_ZNSt6vectorIPvSaIS0_EED1Ev
_ZNSt6vectorIPvSaIS0_EED1Ev:
.LFB8769:
	push	rbp
	.seh_pushreg	rbp
	mov	rbp, rsp
	.seh_setframe	rbp, 0
	sub	rsp, 32
	.seh_stackalloc	32
	.seh_endprologue
	mov	QWORD PTR 16[rbp], rcx
	mov	rax, QWORD PTR 16[rbp]
	mov	rcx, rax
	call	_ZNSt12_Vector_baseIPvSaIS0_EE19_M_get_Tp_allocatorEv
	mov	rcx, rax
	mov	rax, QWORD PTR 16[rbp]
	mov	rdx, QWORD PTR 8[rax]
	mov	rax, QWORD PTR 16[rbp]
	mov	rax, QWORD PTR [rax]
	mov	r8, rcx
	mov	rcx, rax
	call	_ZSt8_DestroyIPPvS0_EvT_S2_RSaIT0_E
	mov	rax, QWORD PTR 16[rbp]
	mov	rcx, rax
	call	_ZNSt12_Vector_baseIPvSaIS0_EED2Ev
	nop
	add	rsp, 32
	pop	rbp
	ret
	.seh_handler	__gxx_personality_seh0, @unwind, @except
	.seh_handlerdata
.LLSDA8769:
	.byte	0xff
	.byte	0xff
	.byte	0x1
	.uleb128 .LLSDACSE8769-.LLSDACSB8769
.LLSDACSB8769:
.LLSDACSE8769:
	.section	.text$_ZNSt6vectorIPvSaIS0_EED1Ev,"x"
	.linkonce discard
	.seh_endproc
	.section	.text$_ZNSt6vectorIPN3ULR4TypeESaIS2_EEixEy,"x"
	.linkonce discard
	.align 2
	.globl	_ZNSt6vectorIPN3ULR4TypeESaIS2_EEixEy
	.def	_ZNSt6vectorIPN3ULR4TypeESaIS2_EEixEy;	.scl	2;	.type	32;	.endef
	.seh_proc	_ZNSt6vectorIPN3ULR4TypeESaIS2_EEixEy
_ZNSt6vectorIPN3ULR4TypeESaIS2_EEixEy:
.LFB8770:
	push	rbp
	.seh_pushreg	rbp
	mov	rbp, rsp
	.seh_setframe	rbp, 0
	.seh_endprologue
	mov	QWORD PTR 16[rbp], rcx
	mov	QWORD PTR 24[rbp], rdx
	mov	rax, QWORD PTR 16[rbp]
	mov	rdx, QWORD PTR [rax]
	mov	rax, QWORD PTR 24[rbp]
	sal	rax, 3
	add	rax, rdx
	pop	rbp
	ret
	.seh_endproc
	.section	.text$_ZNKSt6vectorIPN3ULR4TypeESaIS2_EE4sizeEv,"x"
	.linkonce discard
	.align 2
	.globl	_ZNKSt6vectorIPN3ULR4TypeESaIS2_EE4sizeEv
	.def	_ZNKSt6vectorIPN3ULR4TypeESaIS2_EE4sizeEv;	.scl	2;	.type	32;	.endef
	.seh_proc	_ZNKSt6vectorIPN3ULR4TypeESaIS2_EE4sizeEv
_ZNKSt6vectorIPN3ULR4TypeESaIS2_EE4sizeEv:
.LFB8771:
	push	rbp
	.seh_pushreg	rbp
	mov	rbp, rsp
	.seh_setframe	rbp, 0
	.seh_endprologue
	mov	QWORD PTR 16[rbp], rcx
	mov	rax, QWORD PTR 16[rbp]
	mov	rdx, QWORD PTR 8[rax]
	mov	rax, QWORD PTR 16[rbp]
	mov	rax, QWORD PTR [rax]
	sub	rdx, rax
	mov	rax, rdx
	sar	rax, 3
	pop	rbp
	ret
	.seh_endproc
	.section	.text$_ZNSt6vectorIPvSaIS0_EEixEy,"x"
	.linkonce discard
	.align 2
	.globl	_ZNSt6vectorIPvSaIS0_EEixEy
	.def	_ZNSt6vectorIPvSaIS0_EEixEy;	.scl	2;	.type	32;	.endef
	.seh_proc	_ZNSt6vectorIPvSaIS0_EEixEy
_ZNSt6vectorIPvSaIS0_EEixEy:
.LFB8772:
	push	rbp
	.seh_pushreg	rbp
	mov	rbp, rsp
	.seh_setframe	rbp, 0
	.seh_endprologue
	mov	QWORD PTR 16[rbp], rcx
	mov	QWORD PTR 24[rbp], rdx
	mov	rax, QWORD PTR 16[rbp]
	mov	rdx, QWORD PTR [rax]
	mov	rax, QWORD PTR 24[rbp]
	sal	rax, 3
	add	rax, rdx
	pop	rbp
	ret
	.seh_endproc
	.section	.text$_ZNSt6vectorIPvSaIS0_EE4dataEv,"x"
	.linkonce discard
	.align 2
	.globl	_ZNSt6vectorIPvSaIS0_EE4dataEv
	.def	_ZNSt6vectorIPvSaIS0_EE4dataEv;	.scl	2;	.type	32;	.endef
	.seh_proc	_ZNSt6vectorIPvSaIS0_EE4dataEv
_ZNSt6vectorIPvSaIS0_EE4dataEv:
.LFB8773:
	push	rbp
	.seh_pushreg	rbp
	mov	rbp, rsp
	.seh_setframe	rbp, 0
	sub	rsp, 32
	.seh_stackalloc	32
	.seh_endprologue
	mov	QWORD PTR 16[rbp], rcx
	mov	rax, QWORD PTR 16[rbp]
	mov	rax, QWORD PTR [rax]
	mov	rdx, rax
	mov	rcx, QWORD PTR 16[rbp]
	call	_ZNKSt6vectorIPvSaIS0_EE11_M_data_ptrIS0_EEPT_S5_
	add	rsp, 32
	pop	rbp
	ret
	.seh_endproc
	.section	.text$_ZNSt6vectorIPvSaIS0_EE7emplaceIJPPN3ULR4TypeEEEEN9__gnu_cxx17__normal_iteratorIPS0_S2_EENS9_IPKS0_S2_EEDpOT_,"x"
	.linkonce discard
	.align 2
	.globl	_ZNSt6vectorIPvSaIS0_EE7emplaceIJPPN3ULR4TypeEEEEN9__gnu_cxx17__normal_iteratorIPS0_S2_EENS9_IPKS0_S2_EEDpOT_
	.def	_ZNSt6vectorIPvSaIS0_EE7emplaceIJPPN3ULR4TypeEEEEN9__gnu_cxx17__normal_iteratorIPS0_S2_EENS9_IPKS0_S2_EEDpOT_;	.scl	2;	.type	32;	.endef
	.seh_proc	_ZNSt6vectorIPvSaIS0_EE7emplaceIJPPN3ULR4TypeEEEEN9__gnu_cxx17__normal_iteratorIPS0_S2_EENS9_IPKS0_S2_EEDpOT_
_ZNSt6vectorIPvSaIS0_EE7emplaceIJPPN3ULR4TypeEEEEN9__gnu_cxx17__normal_iteratorIPS0_S2_EENS9_IPKS0_S2_EEDpOT_:
.LFB8777:
	push	rbp
	.seh_pushreg	rbp
	mov	rbp, rsp
	.seh_setframe	rbp, 0
	sub	rsp, 32
	.seh_stackalloc	32
	.seh_endprologue
	mov	QWORD PTR 16[rbp], rcx
	mov	QWORD PTR 24[rbp], rdx
	mov	QWORD PTR 32[rbp], r8
	mov	rax, QWORD PTR 32[rbp]
	mov	rcx, rax
	call	_ZSt7forwardIPPN3ULR4TypeEEOT_RNSt16remove_referenceIS4_E4typeE
	mov	rdx, rax
	mov	rax, QWORD PTR 24[rbp]
	mov	r8, rdx
	mov	rdx, rax
	mov	rcx, QWORD PTR 16[rbp]
	call	_ZNSt6vectorIPvSaIS0_EE14_M_emplace_auxIJPPN3ULR4TypeEEEEN9__gnu_cxx17__normal_iteratorIPS0_S2_EENS9_IPKS0_S2_EEDpOT_
	add	rsp, 32
	pop	rbp
	ret
	.seh_endproc
	.section	.text$_ZNSt3mapIPcSt6vectorIPN3ULR10MemberInfoESaIS4_EENS2_11cmp_chr_ptrESaISt4pairIKS0_S6_EEE11lower_boundERS9_,"x"
	.linkonce discard
	.align 2
	.globl	_ZNSt3mapIPcSt6vectorIPN3ULR10MemberInfoESaIS4_EENS2_11cmp_chr_ptrESaISt4pairIKS0_S6_EEE11lower_boundERS9_
	.def	_ZNSt3mapIPcSt6vectorIPN3ULR10MemberInfoESaIS4_EENS2_11cmp_chr_ptrESaISt4pairIKS0_S6_EEE11lower_boundERS9_;	.scl	2;	.type	32;	.endef
	.seh_proc	_ZNSt3mapIPcSt6vectorIPN3ULR10MemberInfoESaIS4_EENS2_11cmp_chr_ptrESaISt4pairIKS0_S6_EEE11lower_boundERS9_
_ZNSt3mapIPcSt6vectorIPN3ULR10MemberInfoESaIS4_EENS2_11cmp_chr_ptrESaISt4pairIKS0_S6_EEE11lower_boundERS9_:
.LFB8896:
	push	rbp
	.seh_pushreg	rbp
	mov	rbp, rsp
	.seh_setframe	rbp, 0
	sub	rsp, 32
	.seh_stackalloc	32
	.seh_endprologue
	mov	QWORD PTR 16[rbp], rcx
	mov	QWORD PTR 24[rbp], rdx
	mov	rax, QWORD PTR 16[rbp]
	mov	rdx, QWORD PTR 24[rbp]
	mov	rcx, rax
	call	_ZNSt8_Rb_treeIPcSt4pairIKS0_St6vectorIPN3ULR10MemberInfoESaIS6_EEESt10_Select1stIS9_ENS4_11cmp_chr_ptrESaIS9_EE11lower_boundERS2_
	add	rsp, 32
	pop	rbp
	ret
	.seh_endproc
	.section	.text$_ZNKSt17_Rb_tree_iteratorISt4pairIKPcSt6vectorIPN3ULR10MemberInfoESaIS6_EEEEeqERKSA_,"x"
	.linkonce discard
	.align 2
	.globl	_ZNKSt17_Rb_tree_iteratorISt4pairIKPcSt6vectorIPN3ULR10MemberInfoESaIS6_EEEEeqERKSA_
	.def	_ZNKSt17_Rb_tree_iteratorISt4pairIKPcSt6vectorIPN3ULR10MemberInfoESaIS6_EEEEeqERKSA_;	.scl	2;	.type	32;	.endef
	.seh_proc	_ZNKSt17_Rb_tree_iteratorISt4pairIKPcSt6vectorIPN3ULR10MemberInfoESaIS6_EEEEeqERKSA_
_ZNKSt17_Rb_tree_iteratorISt4pairIKPcSt6vectorIPN3ULR10MemberInfoESaIS6_EEEEeqERKSA_:
.LFB8897:
	push	rbp
	.seh_pushreg	rbp
	mov	rbp, rsp
	.seh_setframe	rbp, 0
	.seh_endprologue
	mov	QWORD PTR 16[rbp], rcx
	mov	QWORD PTR 24[rbp], rdx
	mov	rax, QWORD PTR 16[rbp]
	mov	rdx, QWORD PTR [rax]
	mov	rax, QWORD PTR 24[rbp]
	mov	rax, QWORD PTR [rax]
	cmp	rdx, rax
	sete	al
	pop	rbp
	ret
	.seh_endproc
	.section	.text$_ZNKSt3mapIPcSt6vectorIPN3ULR10MemberInfoESaIS4_EENS2_11cmp_chr_ptrESaISt4pairIKS0_S6_EEE8key_compEv,"x"
	.linkonce discard
	.align 2
	.globl	_ZNKSt3mapIPcSt6vectorIPN3ULR10MemberInfoESaIS4_EENS2_11cmp_chr_ptrESaISt4pairIKS0_S6_EEE8key_compEv
	.def	_ZNKSt3mapIPcSt6vectorIPN3ULR10MemberInfoESaIS4_EENS2_11cmp_chr_ptrESaISt4pairIKS0_S6_EEE8key_compEv;	.scl	2;	.type	32;	.endef
	.seh_proc	_ZNKSt3mapIPcSt6vectorIPN3ULR10MemberInfoESaIS4_EENS2_11cmp_chr_ptrESaISt4pairIKS0_S6_EEE8key_compEv
_ZNKSt3mapIPcSt6vectorIPN3ULR10MemberInfoESaIS4_EENS2_11cmp_chr_ptrESaISt4pairIKS0_S6_EEE8key_compEv:
.LFB8898:
	push	rbp
	.seh_pushreg	rbp
	push	rbx
	.seh_pushreg	rbx
	sub	rsp, 40
	.seh_stackalloc	40
	lea	rbp, 128[rsp]
	.seh_setframe	rbp, 128
	.seh_endprologue
	mov	QWORD PTR -64[rbp], rcx
	mov	rax, QWORD PTR -64[rbp]
	mov	rcx, rax
	call	_ZNKSt8_Rb_treeIPcSt4pairIKS0_St6vectorIPN3ULR10MemberInfoESaIS6_EEESt10_Select1stIS9_ENS4_11cmp_chr_ptrESaIS9_EE8key_compEv
	mov	eax, ebx
	add	rsp, 40
	pop	rbx
	pop	rbp
	ret
	.seh_endproc
	.section	.text$_ZNSt23_Rb_tree_const_iteratorISt4pairIKPcSt6vectorIPN3ULR10MemberInfoESaIS6_EEEEC1ERKSt17_Rb_tree_iteratorIS9_E,"x"
	.linkonce discard
	.align 2
	.globl	_ZNSt23_Rb_tree_const_iteratorISt4pairIKPcSt6vectorIPN3ULR10MemberInfoESaIS6_EEEEC1ERKSt17_Rb_tree_iteratorIS9_E
	.def	_ZNSt23_Rb_tree_const_iteratorISt4pairIKPcSt6vectorIPN3ULR10MemberInfoESaIS6_EEEEC1ERKSt17_Rb_tree_iteratorIS9_E;	.scl	2;	.type	32;	.endef
	.seh_proc	_ZNSt23_Rb_tree_const_iteratorISt4pairIKPcSt6vectorIPN3ULR10MemberInfoESaIS6_EEEEC1ERKSt17_Rb_tree_iteratorIS9_E
_ZNSt23_Rb_tree_const_iteratorISt4pairIKPcSt6vectorIPN3ULR10MemberInfoESaIS6_EEEEC1ERKSt17_Rb_tree_iteratorIS9_E:
.LFB8904:
	push	rbp
	.seh_pushreg	rbp
	mov	rbp, rsp
	.seh_setframe	rbp, 0
	.seh_endprologue
	mov	QWORD PTR 16[rbp], rcx
	mov	QWORD PTR 24[rbp], rdx
	mov	rax, QWORD PTR 24[rbp]
	mov	rdx, QWORD PTR [rax]
	mov	rax, QWORD PTR 16[rbp]
	mov	QWORD PTR [rax], rdx
	nop
	pop	rbp
	ret
	.seh_endproc
	.section	.text$_ZN9__gnu_cxx14__alloc_traitsISaIPN3ULR10MemberInfoEES3_E17_S_select_on_copyERKS4_,"x"
	.linkonce discard
	.globl	_ZN9__gnu_cxx14__alloc_traitsISaIPN3ULR10MemberInfoEES3_E17_S_select_on_copyERKS4_
	.def	_ZN9__gnu_cxx14__alloc_traitsISaIPN3ULR10MemberInfoEES3_E17_S_select_on_copyERKS4_;	.scl	2;	.type	32;	.endef
	.seh_proc	_ZN9__gnu_cxx14__alloc_traitsISaIPN3ULR10MemberInfoEES3_E17_S_select_on_copyERKS4_
_ZN9__gnu_cxx14__alloc_traitsISaIPN3ULR10MemberInfoEES3_E17_S_select_on_copyERKS4_:
.LFB8910:
	push	rbp
	.seh_pushreg	rbp
	mov	rbp, rsp
	.seh_setframe	rbp, 0
	sub	rsp, 32
	.seh_stackalloc	32
	.seh_endprologue
	mov	QWORD PTR 16[rbp], rcx
	mov	QWORD PTR 24[rbp], rdx
	mov	rax, QWORD PTR 16[rbp]
	mov	rdx, QWORD PTR 24[rbp]
	mov	rcx, rax
	call	_ZNSt16allocator_traitsISaIPN3ULR10MemberInfoEEE37select_on_container_copy_constructionERKS3_
	mov	rax, QWORD PTR 16[rbp]
	add	rsp, 32
	pop	rbp
	ret
	.seh_endproc
	.section	.text$_ZNKSt12_Vector_baseIPN3ULR10MemberInfoESaIS2_EE19_M_get_Tp_allocatorEv,"x"
	.linkonce discard
	.align 2
	.globl	_ZNKSt12_Vector_baseIPN3ULR10MemberInfoESaIS2_EE19_M_get_Tp_allocatorEv
	.def	_ZNKSt12_Vector_baseIPN3ULR10MemberInfoESaIS2_EE19_M_get_Tp_allocatorEv;	.scl	2;	.type	32;	.endef
	.seh_proc	_ZNKSt12_Vector_baseIPN3ULR10MemberInfoESaIS2_EE19_M_get_Tp_allocatorEv
_ZNKSt12_Vector_baseIPN3ULR10MemberInfoESaIS2_EE19_M_get_Tp_allocatorEv:
.LFB8911:
	push	rbp
	.seh_pushreg	rbp
	mov	rbp, rsp
	.seh_setframe	rbp, 0
	.seh_endprologue
	mov	QWORD PTR 16[rbp], rcx
	mov	rax, QWORD PTR 16[rbp]
	pop	rbp
	ret
	.seh_endproc
	.section	.text$_ZNSaIPN3ULR10MemberInfoEED2Ev,"x"
	.linkonce discard
	.align 2
	.globl	_ZNSaIPN3ULR10MemberInfoEED2Ev
	.def	_ZNSaIPN3ULR10MemberInfoEED2Ev;	.scl	2;	.type	32;	.endef
	.seh_proc	_ZNSaIPN3ULR10MemberInfoEED2Ev
_ZNSaIPN3ULR10MemberInfoEED2Ev:
.LFB8913:
	push	rbp
	.seh_pushreg	rbp
	mov	rbp, rsp
	.seh_setframe	rbp, 0
	sub	rsp, 32
	.seh_stackalloc	32
	.seh_endprologue
	mov	QWORD PTR 16[rbp], rcx
	mov	rcx, QWORD PTR 16[rbp]
	call	_ZN9__gnu_cxx13new_allocatorIPN3ULR10MemberInfoEED2Ev
	nop
	add	rsp, 32
	pop	rbp
	ret
	.seh_endproc
	.section	.text$_ZNSaIPN3ULR10MemberInfoEED1Ev,"x"
	.linkonce discard
	.align 2
	.globl	_ZNSaIPN3ULR10MemberInfoEED1Ev
	.def	_ZNSaIPN3ULR10MemberInfoEED1Ev;	.scl	2;	.type	32;	.endef
	.seh_proc	_ZNSaIPN3ULR10MemberInfoEED1Ev
_ZNSaIPN3ULR10MemberInfoEED1Ev:
.LFB8914:
	push	rbp
	.seh_pushreg	rbp
	mov	rbp, rsp
	.seh_setframe	rbp, 0
	sub	rsp, 32
	.seh_stackalloc	32
	.seh_endprologue
	mov	QWORD PTR 16[rbp], rcx
	mov	rcx, QWORD PTR 16[rbp]
	call	_ZN9__gnu_cxx13new_allocatorIPN3ULR10MemberInfoEED2Ev
	nop
	add	rsp, 32
	pop	rbp
	ret
	.seh_endproc
	.section	.text$_ZNSt12_Vector_baseIPN3ULR10MemberInfoESaIS2_EE12_Vector_implD1Ev,"x"
	.linkonce discard
	.align 2
	.globl	_ZNSt12_Vector_baseIPN3ULR10MemberInfoESaIS2_EE12_Vector_implD1Ev
	.def	_ZNSt12_Vector_baseIPN3ULR10MemberInfoESaIS2_EE12_Vector_implD1Ev;	.scl	2;	.type	32;	.endef
	.seh_proc	_ZNSt12_Vector_baseIPN3ULR10MemberInfoESaIS2_EE12_Vector_implD1Ev
_ZNSt12_Vector_baseIPN3ULR10MemberInfoESaIS2_EE12_Vector_implD1Ev:
.LFB8918:
	push	rbp
	.seh_pushreg	rbp
	mov	rbp, rsp
	.seh_setframe	rbp, 0
	sub	rsp, 32
	.seh_stackalloc	32
	.seh_endprologue
	mov	QWORD PTR 16[rbp], rcx
	mov	rcx, QWORD PTR 16[rbp]
	call	_ZNSaIPN3ULR10MemberInfoEED2Ev
	nop
	add	rsp, 32
	pop	rbp
	ret
	.seh_endproc
	.section	.text$_ZNSt12_Vector_baseIPN3ULR10MemberInfoESaIS2_EEC2EyRKS3_,"x"
	.linkonce discard
	.align 2
	.globl	_ZNSt12_Vector_baseIPN3ULR10MemberInfoESaIS2_EEC2EyRKS3_
	.def	_ZNSt12_Vector_baseIPN3ULR10MemberInfoESaIS2_EEC2EyRKS3_;	.scl	2;	.type	32;	.endef
	.seh_proc	_ZNSt12_Vector_baseIPN3ULR10MemberInfoESaIS2_EEC2EyRKS3_
_ZNSt12_Vector_baseIPN3ULR10MemberInfoESaIS2_EEC2EyRKS3_:
.LFB8919:
	push	rbp
	.seh_pushreg	rbp
	push	rbx
	.seh_pushreg	rbx
	sub	rsp, 40
	.seh_stackalloc	40
	lea	rbp, 128[rsp]
	.seh_setframe	rbp, 128
	.seh_endprologue
	mov	QWORD PTR -64[rbp], rcx
	mov	QWORD PTR -56[rbp], rdx
	mov	QWORD PTR -48[rbp], r8
	mov	rax, QWORD PTR -64[rbp]
	mov	rdx, QWORD PTR -48[rbp]
	mov	rcx, rax
	call	_ZNSt12_Vector_baseIPN3ULR10MemberInfoESaIS2_EE12_Vector_implC1ERKS3_
	mov	rax, QWORD PTR -56[rbp]
	mov	rdx, rax
	mov	rcx, QWORD PTR -64[rbp]
.LEHB40:
	call	_ZNSt12_Vector_baseIPN3ULR10MemberInfoESaIS2_EE17_M_create_storageEy
.LEHE40:
	jmp	.L312
.L311:
	mov	rbx, rax
	mov	rax, QWORD PTR -64[rbp]
	mov	rcx, rax
	call	_ZNSt12_Vector_baseIPN3ULR10MemberInfoESaIS2_EE12_Vector_implD1Ev
	mov	rax, rbx
	mov	rcx, rax
.LEHB41:
	call	_Unwind_Resume
	nop
.LEHE41:
.L312:
	add	rsp, 40
	pop	rbx
	pop	rbp
	ret
	.seh_handler	__gxx_personality_seh0, @unwind, @except
	.seh_handlerdata
.LLSDA8919:
	.byte	0xff
	.byte	0xff
	.byte	0x1
	.uleb128 .LLSDACSE8919-.LLSDACSB8919
.LLSDACSB8919:
	.uleb128 .LEHB40-.LFB8919
	.uleb128 .LEHE40-.LEHB40
	.uleb128 .L311-.LFB8919
	.uleb128 0
	.uleb128 .LEHB41-.LFB8919
	.uleb128 .LEHE41-.LEHB41
	.uleb128 0
	.uleb128 0
.LLSDACSE8919:
	.section	.text$_ZNSt12_Vector_baseIPN3ULR10MemberInfoESaIS2_EEC2EyRKS3_,"x"
	.linkonce discard
	.seh_endproc
	.section	.text$_ZNSt12_Vector_baseIPN3ULR10MemberInfoESaIS2_EED2Ev,"x"
	.linkonce discard
	.align 2
	.globl	_ZNSt12_Vector_baseIPN3ULR10MemberInfoESaIS2_EED2Ev
	.def	_ZNSt12_Vector_baseIPN3ULR10MemberInfoESaIS2_EED2Ev;	.scl	2;	.type	32;	.endef
	.seh_proc	_ZNSt12_Vector_baseIPN3ULR10MemberInfoESaIS2_EED2Ev
_ZNSt12_Vector_baseIPN3ULR10MemberInfoESaIS2_EED2Ev:
.LFB8922:
	push	rbp
	.seh_pushreg	rbp
	mov	rbp, rsp
	.seh_setframe	rbp, 0
	sub	rsp, 32
	.seh_stackalloc	32
	.seh_endprologue
	mov	QWORD PTR 16[rbp], rcx
	mov	rax, QWORD PTR 16[rbp]
	mov	rdx, QWORD PTR 16[rax]
	mov	rax, QWORD PTR 16[rbp]
	mov	rax, QWORD PTR [rax]
	sub	rdx, rax
	mov	rax, rdx
	sar	rax, 3
	mov	rdx, rax
	mov	rax, QWORD PTR 16[rbp]
	mov	rax, QWORD PTR [rax]
	mov	r8, rdx
	mov	rdx, rax
	mov	rcx, QWORD PTR 16[rbp]
	call	_ZNSt12_Vector_baseIPN3ULR10MemberInfoESaIS2_EE13_M_deallocateEPS2_y
	mov	rax, QWORD PTR 16[rbp]
	mov	rcx, rax
	call	_ZNSt12_Vector_baseIPN3ULR10MemberInfoESaIS2_EE12_Vector_implD1Ev
	nop
	add	rsp, 32
	pop	rbp
	ret
	.seh_handler	__gxx_personality_seh0, @unwind, @except
	.seh_handlerdata
.LLSDA8922:
	.byte	0xff
	.byte	0xff
	.byte	0x1
	.uleb128 .LLSDACSE8922-.LLSDACSB8922
.LLSDACSB8922:
.LLSDACSE8922:
	.section	.text$_ZNSt12_Vector_baseIPN3ULR10MemberInfoESaIS2_EED2Ev,"x"
	.linkonce discard
	.seh_endproc
	.section	.text$_ZNKSt6vectorIPN3ULR10MemberInfoESaIS2_EE5beginEv,"x"
	.linkonce discard
	.align 2
	.globl	_ZNKSt6vectorIPN3ULR10MemberInfoESaIS2_EE5beginEv
	.def	_ZNKSt6vectorIPN3ULR10MemberInfoESaIS2_EE5beginEv;	.scl	2;	.type	32;	.endef
	.seh_proc	_ZNKSt6vectorIPN3ULR10MemberInfoESaIS2_EE5beginEv
_ZNKSt6vectorIPN3ULR10MemberInfoESaIS2_EE5beginEv:
.LFB8924:
	push	rbp
	.seh_pushreg	rbp
	mov	rbp, rsp
	.seh_setframe	rbp, 0
	sub	rsp, 48
	.seh_stackalloc	48
	.seh_endprologue
	mov	QWORD PTR 16[rbp], rcx
	mov	rax, QWORD PTR 16[rbp]
	mov	rax, QWORD PTR [rax]
	mov	QWORD PTR -8[rbp], rax
	lea	rdx, -8[rbp]
	lea	rax, -16[rbp]
	mov	rcx, rax
	call	_ZN9__gnu_cxx17__normal_iteratorIPKPN3ULR10MemberInfoESt6vectorIS3_SaIS3_EEEC1ERKS5_
	mov	rax, QWORD PTR -16[rbp]
	add	rsp, 48
	pop	rbp
	ret
	.seh_endproc
	.section	.text$_ZNKSt6vectorIPN3ULR10MemberInfoESaIS2_EE3endEv,"x"
	.linkonce discard
	.align 2
	.globl	_ZNKSt6vectorIPN3ULR10MemberInfoESaIS2_EE3endEv
	.def	_ZNKSt6vectorIPN3ULR10MemberInfoESaIS2_EE3endEv;	.scl	2;	.type	32;	.endef
	.seh_proc	_ZNKSt6vectorIPN3ULR10MemberInfoESaIS2_EE3endEv
_ZNKSt6vectorIPN3ULR10MemberInfoESaIS2_EE3endEv:
.LFB8925:
	push	rbp
	.seh_pushreg	rbp
	mov	rbp, rsp
	.seh_setframe	rbp, 0
	sub	rsp, 48
	.seh_stackalloc	48
	.seh_endprologue
	mov	QWORD PTR 16[rbp], rcx
	mov	rax, QWORD PTR 16[rbp]
	mov	rax, QWORD PTR 8[rax]
	mov	QWORD PTR -8[rbp], rax
	lea	rdx, -8[rbp]
	lea	rax, -16[rbp]
	mov	rcx, rax
	call	_ZN9__gnu_cxx17__normal_iteratorIPKPN3ULR10MemberInfoESt6vectorIS3_SaIS3_EEEC1ERKS5_
	mov	rax, QWORD PTR -16[rbp]
	add	rsp, 48
	pop	rbp
	ret
	.seh_endproc
	.section	.text$_ZNSt12_Vector_baseIPN3ULR10MemberInfoESaIS2_EE19_M_get_Tp_allocatorEv,"x"
	.linkonce discard
	.align 2
	.globl	_ZNSt12_Vector_baseIPN3ULR10MemberInfoESaIS2_EE19_M_get_Tp_allocatorEv
	.def	_ZNSt12_Vector_baseIPN3ULR10MemberInfoESaIS2_EE19_M_get_Tp_allocatorEv;	.scl	2;	.type	32;	.endef
	.seh_proc	_ZNSt12_Vector_baseIPN3ULR10MemberInfoESaIS2_EE19_M_get_Tp_allocatorEv
_ZNSt12_Vector_baseIPN3ULR10MemberInfoESaIS2_EE19_M_get_Tp_allocatorEv:
.LFB8926:
	push	rbp
	.seh_pushreg	rbp
	mov	rbp, rsp
	.seh_setframe	rbp, 0
	.seh_endprologue
	mov	QWORD PTR 16[rbp], rcx
	mov	rax, QWORD PTR 16[rbp]
	pop	rbp
	ret
	.seh_endproc
	.section	.text$_ZSt22__uninitialized_copy_aIN9__gnu_cxx17__normal_iteratorIPKPN3ULR10MemberInfoESt6vectorIS4_SaIS4_EEEEPS4_S4_ET0_T_SD_SC_RSaIT1_E,"x"
	.linkonce discard
	.globl	_ZSt22__uninitialized_copy_aIN9__gnu_cxx17__normal_iteratorIPKPN3ULR10MemberInfoESt6vectorIS4_SaIS4_EEEEPS4_S4_ET0_T_SD_SC_RSaIT1_E
	.def	_ZSt22__uninitialized_copy_aIN9__gnu_cxx17__normal_iteratorIPKPN3ULR10MemberInfoESt6vectorIS4_SaIS4_EEEEPS4_S4_ET0_T_SD_SC_RSaIT1_E;	.scl	2;	.type	32;	.endef
	.seh_proc	_ZSt22__uninitialized_copy_aIN9__gnu_cxx17__normal_iteratorIPKPN3ULR10MemberInfoESt6vectorIS4_SaIS4_EEEEPS4_S4_ET0_T_SD_SC_RSaIT1_E
_ZSt22__uninitialized_copy_aIN9__gnu_cxx17__normal_iteratorIPKPN3ULR10MemberInfoESt6vectorIS4_SaIS4_EEEEPS4_S4_ET0_T_SD_SC_RSaIT1_E:
.LFB8927:
	push	rbp
	.seh_pushreg	rbp
	mov	rbp, rsp
	.seh_setframe	rbp, 0
	sub	rsp, 32
	.seh_stackalloc	32
	.seh_endprologue
	mov	QWORD PTR 16[rbp], rcx
	mov	QWORD PTR 24[rbp], rdx
	mov	QWORD PTR 32[rbp], r8
	mov	QWORD PTR 40[rbp], r9
	mov	rdx, QWORD PTR 32[rbp]
	mov	rax, QWORD PTR 24[rbp]
	mov	r8, rdx
	mov	rdx, rax
	mov	rcx, QWORD PTR 16[rbp]
	call	_ZSt18uninitialized_copyIN9__gnu_cxx17__normal_iteratorIPKPN3ULR10MemberInfoESt6vectorIS4_SaIS4_EEEEPS4_ET0_T_SD_SC_
	add	rsp, 32
	pop	rbp
	ret
	.seh_endproc
	.section	.text$_ZSt8_DestroyIPPN3ULR10MemberInfoES2_EvT_S4_RSaIT0_E,"x"
	.linkonce discard
	.globl	_ZSt8_DestroyIPPN3ULR10MemberInfoES2_EvT_S4_RSaIT0_E
	.def	_ZSt8_DestroyIPPN3ULR10MemberInfoES2_EvT_S4_RSaIT0_E;	.scl	2;	.type	32;	.endef
	.seh_proc	_ZSt8_DestroyIPPN3ULR10MemberInfoES2_EvT_S4_RSaIT0_E
_ZSt8_DestroyIPPN3ULR10MemberInfoES2_EvT_S4_RSaIT0_E:
.LFB8928:
	push	rbp
	.seh_pushreg	rbp
	mov	rbp, rsp
	.seh_setframe	rbp, 0
	sub	rsp, 32
	.seh_stackalloc	32
	.seh_endprologue
	mov	QWORD PTR 16[rbp], rcx
	mov	QWORD PTR 24[rbp], rdx
	mov	QWORD PTR 32[rbp], r8
	mov	rax, QWORD PTR 24[rbp]
	mov	rdx, rax
	mov	rcx, QWORD PTR 16[rbp]
	call	_ZSt8_DestroyIPPN3ULR10MemberInfoEEvT_S4_
	nop
	add	rsp, 32
	pop	rbp
	ret
	.seh_endproc
	.section	.text$_ZSt4moveIRPcEONSt16remove_referenceIT_E4typeEOS3_,"x"
	.linkonce discard
	.globl	_ZSt4moveIRPcEONSt16remove_referenceIT_E4typeEOS3_
	.def	_ZSt4moveIRPcEONSt16remove_referenceIT_E4typeEOS3_;	.scl	2;	.type	32;	.endef
	.seh_proc	_ZSt4moveIRPcEONSt16remove_referenceIT_E4typeEOS3_
_ZSt4moveIRPcEONSt16remove_referenceIT_E4typeEOS3_:
.LFB8940:
	push	rbp
	.seh_pushreg	rbp
	mov	rbp, rsp
	.seh_setframe	rbp, 0
	.seh_endprologue
	mov	QWORD PTR 16[rbp], rcx
	mov	rax, QWORD PTR 16[rbp]
	pop	rbp
	ret
	.seh_endproc
	.section	.text$_ZNSt5tupleIJOPcEEC1EOS2_,"x"
	.linkonce discard
	.align 2
	.globl	_ZNSt5tupleIJOPcEEC1EOS2_
	.def	_ZNSt5tupleIJOPcEEC1EOS2_;	.scl	2;	.type	32;	.endef
	.seh_proc	_ZNSt5tupleIJOPcEEC1EOS2_
_ZNSt5tupleIJOPcEEC1EOS2_:
.LFB8956:
	push	rbp
	.seh_pushreg	rbp
	mov	rbp, rsp
	.seh_setframe	rbp, 0
	sub	rsp, 32
	.seh_stackalloc	32
	.seh_endprologue
	mov	QWORD PTR 16[rbp], rcx
	mov	QWORD PTR 24[rbp], rdx
	mov	rax, QWORD PTR 16[rbp]
	mov	rdx, QWORD PTR 24[rbp]
	mov	rcx, rax
	call	_ZNSt11_Tuple_implILy0EJOPcEEC2EOS2_
	nop
	add	rsp, 32
	pop	rbp
	ret
	.seh_endproc
	.section	.text$_ZSt16forward_as_tupleIJPcEESt5tupleIJDpOT_EES4_,"x"
	.linkonce discard
	.globl	_ZSt16forward_as_tupleIJPcEESt5tupleIJDpOT_EES4_
	.def	_ZSt16forward_as_tupleIJPcEESt5tupleIJDpOT_EES4_;	.scl	2;	.type	32;	.endef
	.seh_proc	_ZSt16forward_as_tupleIJPcEESt5tupleIJDpOT_EES4_
_ZSt16forward_as_tupleIJPcEESt5tupleIJDpOT_EES4_:
.LFB8941:
	push	rbp
	.seh_pushreg	rbp
	mov	rbp, rsp
	.seh_setframe	rbp, 0
	sub	rsp, 32
	.seh_stackalloc	32
	.seh_endprologue
	mov	QWORD PTR 16[rbp], rcx
	mov	QWORD PTR 24[rbp], rdx
	mov	rax, QWORD PTR 24[rbp]
	mov	rcx, rax
	call	_ZSt7forwardIPcEOT_RNSt16remove_referenceIS1_E4typeE
	mov	rdx, rax
	mov	rcx, QWORD PTR 16[rbp]
	call	_ZNSt5tupleIJOPcEEC1IJS0_ELb1EEEDpOT_
	mov	rax, QWORD PTR 16[rbp]
	add	rsp, 32
	pop	rbp
	ret
	.seh_handler	__gxx_personality_seh0, @unwind, @except
	.seh_handlerdata
.LLSDA8941:
	.byte	0xff
	.byte	0xff
	.byte	0x1
	.uleb128 .LLSDACSE8941-.LLSDACSB8941
.LLSDACSB8941:
.LLSDACSE8941:
	.section	.text$_ZSt16forward_as_tupleIJPcEESt5tupleIJDpOT_EES4_,"x"
	.linkonce discard
	.seh_endproc
	.section	.text$_ZNSt8_Rb_treeIPcSt4pairIKS0_St6vectorIPN3ULR10MemberInfoESaIS6_EEESt10_Select1stIS9_ENS4_11cmp_chr_ptrESaIS9_EE22_M_emplace_hint_uniqueIJRKSt21piecewise_construct_tSt5tupleIJOS0_EESJ_IJEEEEESt17_Rb_tree_iteratorIS9_ESt23_Rb_tree_const_iteratorIS9_EDpOT_,"x"
	.linkonce discard
	.align 2
	.globl	_ZNSt8_Rb_treeIPcSt4pairIKS0_St6vectorIPN3ULR10MemberInfoESaIS6_EEESt10_Select1stIS9_ENS4_11cmp_chr_ptrESaIS9_EE22_M_emplace_hint_uniqueIJRKSt21piecewise_construct_tSt5tupleIJOS0_EESJ_IJEEEEESt17_Rb_tree_iteratorIS9_ESt23_Rb_tree_const_iteratorIS9_EDpOT_
	.def	_ZNSt8_Rb_treeIPcSt4pairIKS0_St6vectorIPN3ULR10MemberInfoESaIS6_EEESt10_Select1stIS9_ENS4_11cmp_chr_ptrESaIS9_EE22_M_emplace_hint_uniqueIJRKSt21piecewise_construct_tSt5tupleIJOS0_EESJ_IJEEEEESt17_Rb_tree_iteratorIS9_ESt23_Rb_tree_const_iteratorIS9_EDpOT_;	.scl	2;	.type	32;	.endef
	.seh_proc	_ZNSt8_Rb_treeIPcSt4pairIKS0_St6vectorIPN3ULR10MemberInfoESaIS6_EEESt10_Select1stIS9_ENS4_11cmp_chr_ptrESaIS9_EE22_M_emplace_hint_uniqueIJRKSt21piecewise_construct_tSt5tupleIJOS0_EESJ_IJEEEEESt17_Rb_tree_iteratorIS9_ESt23_Rb_tree_const_iteratorIS9_EDpOT_
_ZNSt8_Rb_treeIPcSt4pairIKS0_St6vectorIPN3ULR10MemberInfoESaIS6_EEESt10_Select1stIS9_ENS4_11cmp_chr_ptrESaIS9_EE22_M_emplace_hint_uniqueIJRKSt21piecewise_construct_tSt5tupleIJOS0_EESJ_IJEEEEESt17_Rb_tree_iteratorIS9_ESt23_Rb_tree_const_iteratorIS9_EDpOT_:
.LFB8957:
	push	rbp
	.seh_pushreg	rbp
	push	rsi
	.seh_pushreg	rsi
	push	rbx
	.seh_pushreg	rbx
	mov	rbp, rsp
	.seh_setframe	rbp, 0
	sub	rsp, 64
	.seh_stackalloc	64
	.seh_endprologue
	mov	QWORD PTR 32[rbp], rcx
	mov	QWORD PTR 40[rbp], rdx
	mov	QWORD PTR 48[rbp], r8
	mov	QWORD PTR 56[rbp], r9
	mov	rax, QWORD PTR 64[rbp]
	mov	rcx, rax
	call	_ZSt7forwardISt5tupleIJEEEOT_RNSt16remove_referenceIS2_E4typeE
	mov	rsi, rax
	mov	rax, QWORD PTR 56[rbp]
	mov	rcx, rax
	call	_ZSt7forwardISt5tupleIJOPcEEEOT_RNSt16remove_referenceIS4_E4typeE
	mov	rbx, rax
	mov	rax, QWORD PTR 48[rbp]
	mov	rcx, rax
	call	_ZSt7forwardIRKSt21piecewise_construct_tEOT_RNSt16remove_referenceIS3_E4typeE
	mov	r9, rsi
	mov	r8, rbx
	mov	rdx, rax
	mov	rcx, QWORD PTR 32[rbp]
.LEHB42:
	call	_ZNSt8_Rb_treeIPcSt4pairIKS0_St6vectorIPN3ULR10MemberInfoESaIS6_EEESt10_Select1stIS9_ENS4_11cmp_chr_ptrESaIS9_EE14_M_create_nodeIJRKSt21piecewise_construct_tSt5tupleIJOS0_EESJ_IJEEEEEPSt13_Rb_tree_nodeIS9_EDpOT_
.LEHE42:
	mov	QWORD PTR -8[rbp], rax
	mov	rax, QWORD PTR -8[rbp]
	mov	rcx, rax
.LEHB43:
	call	_ZNSt8_Rb_treeIPcSt4pairIKS0_St6vectorIPN3ULR10MemberInfoESaIS6_EEESt10_Select1stIS9_ENS4_11cmp_chr_ptrESaIS9_EE6_S_keyEPKSt13_Rb_tree_nodeIS9_E
	mov	rcx, rax
	lea	rax, -32[rbp]
	mov	rdx, QWORD PTR 40[rbp]
	mov	r9, rcx
	mov	r8, rdx
	mov	rdx, QWORD PTR 32[rbp]
	mov	rcx, rax
	call	_ZNSt8_Rb_treeIPcSt4pairIKS0_St6vectorIPN3ULR10MemberInfoESaIS6_EEESt10_Select1stIS9_ENS4_11cmp_chr_ptrESaIS9_EE29_M_get_insert_hint_unique_posESt23_Rb_tree_const_iteratorIS9_ERS2_
	mov	rax, QWORD PTR -24[rbp]
	test	rax, rax
	je	.L329
	mov	rdx, QWORD PTR -24[rbp]
	mov	rax, QWORD PTR -32[rbp]
	mov	rcx, QWORD PTR -8[rbp]
	mov	r9, rcx
	mov	r8, rdx
	mov	rdx, rax
	mov	rcx, QWORD PTR 32[rbp]
	call	_ZNSt8_Rb_treeIPcSt4pairIKS0_St6vectorIPN3ULR10MemberInfoESaIS6_EEESt10_Select1stIS9_ENS4_11cmp_chr_ptrESaIS9_EE14_M_insert_nodeEPSt18_Rb_tree_node_baseSG_PSt13_Rb_tree_nodeIS9_E
.LEHE43:
	jmp	.L336
.L329:
	mov	rax, QWORD PTR -8[rbp]
	mov	rdx, rax
	mov	rcx, QWORD PTR 32[rbp]
	call	_ZNSt8_Rb_treeIPcSt4pairIKS0_St6vectorIPN3ULR10MemberInfoESaIS6_EEESt10_Select1stIS9_ENS4_11cmp_chr_ptrESaIS9_EE12_M_drop_nodeEPSt13_Rb_tree_nodeIS9_E
	mov	rdx, QWORD PTR -32[rbp]
	lea	rax, -16[rbp]
	mov	rcx, rax
	call	_ZNSt17_Rb_tree_iteratorISt4pairIKPcSt6vectorIPN3ULR10MemberInfoESaIS6_EEEEC1EPSt18_Rb_tree_node_base
	mov	rax, QWORD PTR -16[rbp]
	jmp	.L336
.L334:
	mov	rcx, rax
	call	__cxa_begin_catch
	mov	rax, QWORD PTR -8[rbp]
	mov	rdx, rax
	mov	rcx, QWORD PTR 32[rbp]
	call	_ZNSt8_Rb_treeIPcSt4pairIKS0_St6vectorIPN3ULR10MemberInfoESaIS6_EEESt10_Select1stIS9_ENS4_11cmp_chr_ptrESaIS9_EE12_M_drop_nodeEPSt13_Rb_tree_nodeIS9_E
.LEHB44:
	call	__cxa_rethrow
.LEHE44:
.L335:
	mov	rbx, rax
	call	__cxa_end_catch
	mov	rax, rbx
	mov	rcx, rax
.LEHB45:
	call	_Unwind_Resume
.LEHE45:
.L336:
	add	rsp, 64
	pop	rbx
	pop	rsi
	pop	rbp
	ret
	.seh_handler	__gxx_personality_seh0, @unwind, @except
	.seh_handlerdata
	.align 4
.LLSDA8957:
	.byte	0xff
	.byte	0x9b
	.uleb128 .LLSDATT8957-.LLSDATTD8957
.LLSDATTD8957:
	.byte	0x1
	.uleb128 .LLSDACSE8957-.LLSDACSB8957
.LLSDACSB8957:
	.uleb128 .LEHB42-.LFB8957
	.uleb128 .LEHE42-.LEHB42
	.uleb128 0
	.uleb128 0
	.uleb128 .LEHB43-.LFB8957
	.uleb128 .LEHE43-.LEHB43
	.uleb128 .L334-.LFB8957
	.uleb128 0x1
	.uleb128 .LEHB44-.LFB8957
	.uleb128 .LEHE44-.LEHB44
	.uleb128 .L335-.LFB8957
	.uleb128 0
	.uleb128 .LEHB45-.LFB8957
	.uleb128 .LEHE45-.LEHB45
	.uleb128 0
	.uleb128 0
.LLSDACSE8957:
	.byte	0x1
	.byte	0
	.align 4
	.long	0

.LLSDATT8957:
	.section	.text$_ZNSt8_Rb_treeIPcSt4pairIKS0_St6vectorIPN3ULR10MemberInfoESaIS6_EEESt10_Select1stIS9_ENS4_11cmp_chr_ptrESaIS9_EE22_M_emplace_hint_uniqueIJRKSt21piecewise_construct_tSt5tupleIJOS0_EESJ_IJEEEEESt17_Rb_tree_iteratorIS9_ESt23_Rb_tree_const_iteratorIS9_EDpOT_,"x"
	.linkonce discard
	.seh_endproc
	.section	.text$_ZNKSt6vectorIPN3ULR4TypeESaIS2_EE5beginEv,"x"
	.linkonce discard
	.align 2
	.globl	_ZNKSt6vectorIPN3ULR4TypeESaIS2_EE5beginEv
	.def	_ZNKSt6vectorIPN3ULR4TypeESaIS2_EE5beginEv;	.scl	2;	.type	32;	.endef
	.seh_proc	_ZNKSt6vectorIPN3ULR4TypeESaIS2_EE5beginEv
_ZNKSt6vectorIPN3ULR4TypeESaIS2_EE5beginEv:
.LFB8958:
	push	rbp
	.seh_pushreg	rbp
	mov	rbp, rsp
	.seh_setframe	rbp, 0
	sub	rsp, 48
	.seh_stackalloc	48
	.seh_endprologue
	mov	QWORD PTR 16[rbp], rcx
	mov	rax, QWORD PTR 16[rbp]
	mov	rax, QWORD PTR [rax]
	mov	QWORD PTR -8[rbp], rax
	lea	rdx, -8[rbp]
	lea	rax, -16[rbp]
	mov	rcx, rax
	call	_ZN9__gnu_cxx17__normal_iteratorIPKPN3ULR4TypeESt6vectorIS3_SaIS3_EEEC1ERKS5_
	mov	rax, QWORD PTR -16[rbp]
	add	rsp, 48
	pop	rbp
	ret
	.seh_endproc
	.section	.text$_ZNKSt6vectorIPN3ULR4TypeESaIS2_EE3endEv,"x"
	.linkonce discard
	.align 2
	.globl	_ZNKSt6vectorIPN3ULR4TypeESaIS2_EE3endEv
	.def	_ZNKSt6vectorIPN3ULR4TypeESaIS2_EE3endEv;	.scl	2;	.type	32;	.endef
	.seh_proc	_ZNKSt6vectorIPN3ULR4TypeESaIS2_EE3endEv
_ZNKSt6vectorIPN3ULR4TypeESaIS2_EE3endEv:
.LFB8959:
	push	rbp
	.seh_pushreg	rbp
	mov	rbp, rsp
	.seh_setframe	rbp, 0
	sub	rsp, 48
	.seh_stackalloc	48
	.seh_endprologue
	mov	QWORD PTR 16[rbp], rcx
	mov	rax, QWORD PTR 16[rbp]
	mov	rax, QWORD PTR 8[rax]
	mov	QWORD PTR -8[rbp], rax
	lea	rdx, -8[rbp]
	lea	rax, -16[rbp]
	mov	rcx, rax
	call	_ZN9__gnu_cxx17__normal_iteratorIPKPN3ULR4TypeESt6vectorIS3_SaIS3_EEEC1ERKS5_
	mov	rax, QWORD PTR -16[rbp]
	add	rsp, 48
	pop	rbp
	ret
	.seh_endproc
	.section	.text$_ZNSt8_Rb_treeIPcSt4pairIKS0_PN3ULR8AssemblyEESt10_Select1stIS6_ENS3_11cmp_chr_ptrESaIS6_EE5beginEv,"x"
	.linkonce discard
	.align 2
	.globl	_ZNSt8_Rb_treeIPcSt4pairIKS0_PN3ULR8AssemblyEESt10_Select1stIS6_ENS3_11cmp_chr_ptrESaIS6_EE5beginEv
	.def	_ZNSt8_Rb_treeIPcSt4pairIKS0_PN3ULR8AssemblyEESt10_Select1stIS6_ENS3_11cmp_chr_ptrESaIS6_EE5beginEv;	.scl	2;	.type	32;	.endef
	.seh_proc	_ZNSt8_Rb_treeIPcSt4pairIKS0_PN3ULR8AssemblyEESt10_Select1stIS6_ENS3_11cmp_chr_ptrESaIS6_EE5beginEv
_ZNSt8_Rb_treeIPcSt4pairIKS0_PN3ULR8AssemblyEESt10_Select1stIS6_ENS3_11cmp_chr_ptrESaIS6_EE5beginEv:
.LFB8961:
	push	rbp
	.seh_pushreg	rbp
	mov	rbp, rsp
	.seh_setframe	rbp, 0
	sub	rsp, 48
	.seh_stackalloc	48
	.seh_endprologue
	mov	QWORD PTR 16[rbp], rcx
	mov	rax, QWORD PTR 16[rbp]
	mov	rdx, QWORD PTR 24[rax]
	lea	rax, -8[rbp]
	mov	rcx, rax
	call	_ZNSt17_Rb_tree_iteratorISt4pairIKPcPN3ULR8AssemblyEEEC1EPSt18_Rb_tree_node_base
	mov	rax, QWORD PTR -8[rbp]
	add	rsp, 48
	pop	rbp
	ret
	.seh_endproc
	.section	.text$_ZNSt8_Rb_treeIPcSt4pairIKS0_PN3ULR8AssemblyEESt10_Select1stIS6_ENS3_11cmp_chr_ptrESaIS6_EE3endEv,"x"
	.linkonce discard
	.align 2
	.globl	_ZNSt8_Rb_treeIPcSt4pairIKS0_PN3ULR8AssemblyEESt10_Select1stIS6_ENS3_11cmp_chr_ptrESaIS6_EE3endEv
	.def	_ZNSt8_Rb_treeIPcSt4pairIKS0_PN3ULR8AssemblyEESt10_Select1stIS6_ENS3_11cmp_chr_ptrESaIS6_EE3endEv;	.scl	2;	.type	32;	.endef
	.seh_proc	_ZNSt8_Rb_treeIPcSt4pairIKS0_PN3ULR8AssemblyEESt10_Select1stIS6_ENS3_11cmp_chr_ptrESaIS6_EE3endEv
_ZNSt8_Rb_treeIPcSt4pairIKS0_PN3ULR8AssemblyEESt10_Select1stIS6_ENS3_11cmp_chr_ptrESaIS6_EE3endEv:
.LFB8962:
	push	rbp
	.seh_pushreg	rbp
	mov	rbp, rsp
	.seh_setframe	rbp, 0
	sub	rsp, 48
	.seh_stackalloc	48
	.seh_endprologue
	mov	QWORD PTR 16[rbp], rcx
	mov	rax, QWORD PTR 16[rbp]
	lea	rdx, 8[rax]
	lea	rax, -8[rbp]
	mov	rcx, rax
	call	_ZNSt17_Rb_tree_iteratorISt4pairIKPcPN3ULR8AssemblyEEEC1EPSt18_Rb_tree_node_base
	mov	rax, QWORD PTR -8[rbp]
	add	rsp, 48
	pop	rbp
	ret
	.seh_endproc
	.section	.text$_ZNSt13_Rb_tree_nodeISt4pairIKPcPN3ULR8AssemblyEEE9_M_valptrEv,"x"
	.linkonce discard
	.align 2
	.globl	_ZNSt13_Rb_tree_nodeISt4pairIKPcPN3ULR8AssemblyEEE9_M_valptrEv
	.def	_ZNSt13_Rb_tree_nodeISt4pairIKPcPN3ULR8AssemblyEEE9_M_valptrEv;	.scl	2;	.type	32;	.endef
	.seh_proc	_ZNSt13_Rb_tree_nodeISt4pairIKPcPN3ULR8AssemblyEEE9_M_valptrEv
_ZNSt13_Rb_tree_nodeISt4pairIKPcPN3ULR8AssemblyEEE9_M_valptrEv:
.LFB8963:
	push	rbp
	.seh_pushreg	rbp
	mov	rbp, rsp
	.seh_setframe	rbp, 0
	sub	rsp, 32
	.seh_stackalloc	32
	.seh_endprologue
	mov	QWORD PTR 16[rbp], rcx
	mov	rax, QWORD PTR 16[rbp]
	add	rax, 32
	mov	rcx, rax
	call	_ZN9__gnu_cxx16__aligned_membufISt4pairIKPcPN3ULR8AssemblyEEE6_M_ptrEv
	add	rsp, 32
	pop	rbp
	ret
	.seh_endproc
	.section	.text$_ZSt7forwardIRPvEOT_RNSt16remove_referenceIS2_E4typeE,"x"
	.linkonce discard
	.globl	_ZSt7forwardIRPvEOT_RNSt16remove_referenceIS2_E4typeE
	.def	_ZSt7forwardIRPvEOT_RNSt16remove_referenceIS2_E4typeE;	.scl	2;	.type	32;	.endef
	.seh_proc	_ZSt7forwardIRPvEOT_RNSt16remove_referenceIS2_E4typeE
_ZSt7forwardIRPvEOT_RNSt16remove_referenceIS2_E4typeE:
.LFB8978:
	push	rbp
	.seh_pushreg	rbp
	mov	rbp, rsp
	.seh_setframe	rbp, 0
	.seh_endprologue
	mov	QWORD PTR 16[rbp], rcx
	mov	rax, QWORD PTR 16[rbp]
	pop	rbp
	ret
	.seh_endproc
	.section	.text$_ZSt7forwardIRyEOT_RNSt16remove_referenceIS1_E4typeE,"x"
	.linkonce discard
	.globl	_ZSt7forwardIRyEOT_RNSt16remove_referenceIS1_E4typeE
	.def	_ZSt7forwardIRyEOT_RNSt16remove_referenceIS1_E4typeE;	.scl	2;	.type	32;	.endef
	.seh_proc	_ZSt7forwardIRyEOT_RNSt16remove_referenceIS1_E4typeE
_ZSt7forwardIRyEOT_RNSt16remove_referenceIS1_E4typeE:
.LFB8979:
	push	rbp
	.seh_pushreg	rbp
	mov	rbp, rsp
	.seh_setframe	rbp, 0
	.seh_endprologue
	mov	QWORD PTR 16[rbp], rcx
	mov	rax, QWORD PTR 16[rbp]
	pop	rbp
	ret
	.seh_endproc
	.section	.text$_ZNSt8_Rb_treeIPvSt4pairIKS0_yESt10_Select1stIS3_ESt4lessIS0_ESaIS3_EE17_M_emplace_uniqueIJRS0_RyEEES1_ISt17_Rb_tree_iteratorIS3_EbEDpOT_,"x"
	.linkonce discard
	.align 2
	.globl	_ZNSt8_Rb_treeIPvSt4pairIKS0_yESt10_Select1stIS3_ESt4lessIS0_ESaIS3_EE17_M_emplace_uniqueIJRS0_RyEEES1_ISt17_Rb_tree_iteratorIS3_EbEDpOT_
	.def	_ZNSt8_Rb_treeIPvSt4pairIKS0_yESt10_Select1stIS3_ESt4lessIS0_ESaIS3_EE17_M_emplace_uniqueIJRS0_RyEEES1_ISt17_Rb_tree_iteratorIS3_EbEDpOT_;	.scl	2;	.type	32;	.endef
	.seh_proc	_ZNSt8_Rb_treeIPvSt4pairIKS0_yESt10_Select1stIS3_ESt4lessIS0_ESaIS3_EE17_M_emplace_uniqueIJRS0_RyEEES1_ISt17_Rb_tree_iteratorIS3_EbEDpOT_
_ZNSt8_Rb_treeIPvSt4pairIKS0_yESt10_Select1stIS3_ESt4lessIS0_ESaIS3_EE17_M_emplace_uniqueIJRS0_RyEEES1_ISt17_Rb_tree_iteratorIS3_EbEDpOT_:
.LFB8980:
	push	rbp
	.seh_pushreg	rbp
	push	rbx
	.seh_pushreg	rbx
	sub	rsp, 104
	.seh_stackalloc	104
	lea	rbp, 128[rsp]
	.seh_setframe	rbp, 128
	.seh_endprologue
	mov	QWORD PTR 0[rbp], rcx
	mov	QWORD PTR 8[rbp], rdx
	mov	QWORD PTR 16[rbp], r8
	mov	QWORD PTR 24[rbp], r9
	mov	rax, QWORD PTR 24[rbp]
	mov	rcx, rax
	call	_ZSt7forwardIRyEOT_RNSt16remove_referenceIS1_E4typeE
	mov	rbx, rax
	mov	rax, QWORD PTR 16[rbp]
	mov	rcx, rax
	call	_ZSt7forwardIRPvEOT_RNSt16remove_referenceIS2_E4typeE
	mov	rdx, rax
	mov	rax, QWORD PTR 8[rbp]
	mov	r8, rbx
	mov	rcx, rax
.LEHB46:
	call	_ZNSt8_Rb_treeIPvSt4pairIKS0_yESt10_Select1stIS3_ESt4lessIS0_ESaIS3_EE14_M_create_nodeIJRS0_RyEEEPSt13_Rb_tree_nodeIS3_EDpOT_
.LEHE46:
	mov	QWORD PTR -40[rbp], rax
	mov	rax, QWORD PTR -40[rbp]
	mov	rcx, rax
.LEHB47:
	call	_ZNSt8_Rb_treeIPvSt4pairIKS0_yESt10_Select1stIS3_ESt4lessIS0_ESaIS3_EE6_S_keyEPKSt13_Rb_tree_nodeIS3_E
	mov	rcx, rax
	lea	rax, -96[rbp]
	mov	rdx, QWORD PTR 8[rbp]
	mov	r8, rcx
	mov	rcx, rax
	call	_ZNSt8_Rb_treeIPvSt4pairIKS0_yESt10_Select1stIS3_ESt4lessIS0_ESaIS3_EE24_M_get_insert_unique_posERS2_
	mov	rax, QWORD PTR -88[rbp]
	test	rax, rax
	je	.L352
	mov	BYTE PTR -65[rbp], 1
	mov	rcx, QWORD PTR -88[rbp]
	mov	rdx, QWORD PTR -96[rbp]
	mov	r8, QWORD PTR -40[rbp]
	mov	rax, QWORD PTR 8[rbp]
	mov	r9, r8
	mov	r8, rcx
	mov	rcx, rax
	call	_ZNSt8_Rb_treeIPvSt4pairIKS0_yESt10_Select1stIS3_ESt4lessIS0_ESaIS3_EE14_M_insert_nodeEPSt18_Rb_tree_node_baseSB_PSt13_Rb_tree_nodeIS3_E
.LEHE47:
	mov	QWORD PTR -64[rbp], rax
	lea	rdx, -65[rbp]
	lea	rax, -64[rbp]
	mov	r8, rdx
	mov	rdx, rax
	mov	rcx, QWORD PTR 0[rbp]
	call	_ZNSt4pairISt17_Rb_tree_iteratorIS_IKPvyEEbEC1IS4_bLb1EEEOT_OT0_
	jmp	.L351
.L352:
	mov	rdx, QWORD PTR -40[rbp]
	mov	rax, QWORD PTR 8[rbp]
	mov	rcx, rax
	call	_ZNSt8_Rb_treeIPvSt4pairIKS0_yESt10_Select1stIS3_ESt4lessIS0_ESaIS3_EE12_M_drop_nodeEPSt13_Rb_tree_nodeIS3_E
	mov	BYTE PTR -49[rbp], 0
	mov	rdx, QWORD PTR -96[rbp]
	lea	rax, -48[rbp]
	mov	rcx, rax
	call	_ZNSt17_Rb_tree_iteratorISt4pairIKPvyEEC1EPSt18_Rb_tree_node_base
	lea	rdx, -49[rbp]
	lea	rax, -48[rbp]
	mov	r8, rdx
	mov	rdx, rax
	mov	rcx, QWORD PTR 0[rbp]
	call	_ZNSt4pairISt17_Rb_tree_iteratorIS_IKPvyEEbEC1IS4_bLb1EEEOT_OT0_
	jmp	.L351
.L357:
	mov	rcx, rax
	call	__cxa_begin_catch
	mov	rdx, QWORD PTR -40[rbp]
	mov	rax, QWORD PTR 8[rbp]
	mov	rcx, rax
	call	_ZNSt8_Rb_treeIPvSt4pairIKS0_yESt10_Select1stIS3_ESt4lessIS0_ESaIS3_EE12_M_drop_nodeEPSt13_Rb_tree_nodeIS3_E
.LEHB48:
	call	__cxa_rethrow
.LEHE48:
.L358:
	mov	rbx, rax
	call	__cxa_end_catch
	mov	rax, rbx
	mov	rcx, rax
.LEHB49:
	call	_Unwind_Resume
.LEHE49:
.L351:
	mov	rax, QWORD PTR 0[rbp]
	add	rsp, 104
	pop	rbx
	pop	rbp
	ret
	.seh_handler	__gxx_personality_seh0, @unwind, @except
	.seh_handlerdata
	.align 4
.LLSDA8980:
	.byte	0xff
	.byte	0x9b
	.uleb128 .LLSDATT8980-.LLSDATTD8980
.LLSDATTD8980:
	.byte	0x1
	.uleb128 .LLSDACSE8980-.LLSDACSB8980
.LLSDACSB8980:
	.uleb128 .LEHB46-.LFB8980
	.uleb128 .LEHE46-.LEHB46
	.uleb128 0
	.uleb128 0
	.uleb128 .LEHB47-.LFB8980
	.uleb128 .LEHE47-.LEHB47
	.uleb128 .L357-.LFB8980
	.uleb128 0x1
	.uleb128 .LEHB48-.LFB8980
	.uleb128 .LEHE48-.LEHB48
	.uleb128 .L358-.LFB8980
	.uleb128 0
	.uleb128 .LEHB49-.LFB8980
	.uleb128 .LEHE49-.LEHB49
	.uleb128 0
	.uleb128 0
.LLSDACSE8980:
	.byte	0x1
	.byte	0
	.align 4
	.long	0

.LLSDATT8980:
	.section	.text$_ZNSt8_Rb_treeIPvSt4pairIKS0_yESt10_Select1stIS3_ESt4lessIS0_ESaIS3_EE17_M_emplace_uniqueIJRS0_RyEEES1_ISt17_Rb_tree_iteratorIS3_EbEDpOT_,"x"
	.linkonce discard
	.seh_endproc
	.section	.text$_ZN9__gnu_cxx13new_allocatorIPvEC2Ev,"x"
	.linkonce discard
	.align 2
	.globl	_ZN9__gnu_cxx13new_allocatorIPvEC2Ev
	.def	_ZN9__gnu_cxx13new_allocatorIPvEC2Ev;	.scl	2;	.type	32;	.endef
	.seh_proc	_ZN9__gnu_cxx13new_allocatorIPvEC2Ev
_ZN9__gnu_cxx13new_allocatorIPvEC2Ev:
.LFB8990:
	push	rbp
	.seh_pushreg	rbp
	mov	rbp, rsp
	.seh_setframe	rbp, 0
	.seh_endprologue
	mov	QWORD PTR 16[rbp], rcx
	nop
	pop	rbp
	ret
	.seh_endproc
	.section	.text$_ZN9__gnu_cxx13new_allocatorIPvED2Ev,"x"
	.linkonce discard
	.align 2
	.globl	_ZN9__gnu_cxx13new_allocatorIPvED2Ev
	.def	_ZN9__gnu_cxx13new_allocatorIPvED2Ev;	.scl	2;	.type	32;	.endef
	.seh_proc	_ZN9__gnu_cxx13new_allocatorIPvED2Ev
_ZN9__gnu_cxx13new_allocatorIPvED2Ev:
.LFB8993:
	push	rbp
	.seh_pushreg	rbp
	mov	rbp, rsp
	.seh_setframe	rbp, 0
	.seh_endprologue
	mov	QWORD PTR 16[rbp], rcx
	nop
	pop	rbp
	ret
	.seh_endproc
	.section	.text$_ZNSaIPvEC2ERKS0_,"x"
	.linkonce discard
	.align 2
	.globl	_ZNSaIPvEC2ERKS0_
	.def	_ZNSaIPvEC2ERKS0_;	.scl	2;	.type	32;	.endef
	.seh_proc	_ZNSaIPvEC2ERKS0_
_ZNSaIPvEC2ERKS0_:
.LFB8996:
	push	rbp
	.seh_pushreg	rbp
	mov	rbp, rsp
	.seh_setframe	rbp, 0
	sub	rsp, 32
	.seh_stackalloc	32
	.seh_endprologue
	mov	QWORD PTR 16[rbp], rcx
	mov	QWORD PTR 24[rbp], rdx
	mov	rax, QWORD PTR 24[rbp]
	mov	rdx, rax
	mov	rcx, QWORD PTR 16[rbp]
	call	_ZN9__gnu_cxx13new_allocatorIPvEC2ERKS2_
	nop
	add	rsp, 32
	pop	rbp
	ret
	.seh_endproc
	.section	.text$_ZNSaIPvEC1ERKS0_,"x"
	.linkonce discard
	.align 2
	.globl	_ZNSaIPvEC1ERKS0_
	.def	_ZNSaIPvEC1ERKS0_;	.scl	2;	.type	32;	.endef
	.seh_proc	_ZNSaIPvEC1ERKS0_
_ZNSaIPvEC1ERKS0_:
.LFB8997:
	push	rbp
	.seh_pushreg	rbp
	mov	rbp, rsp
	.seh_setframe	rbp, 0
	sub	rsp, 32
	.seh_stackalloc	32
	.seh_endprologue
	mov	QWORD PTR 16[rbp], rcx
	mov	QWORD PTR 24[rbp], rdx
	mov	rax, QWORD PTR 24[rbp]
	mov	rdx, rax
	mov	rcx, QWORD PTR 16[rbp]
	call	_ZN9__gnu_cxx13new_allocatorIPvEC2ERKS2_
	nop
	add	rsp, 32
	pop	rbp
	ret
	.seh_endproc
	.section	.text$_ZNSt8_Rb_treeIPvS0_St9_IdentityIS0_ESt4lessIS0_ESaIS0_EEC1ERKS4_RKS5_,"x"
	.linkonce discard
	.align 2
	.globl	_ZNSt8_Rb_treeIPvS0_St9_IdentityIS0_ESt4lessIS0_ESaIS0_EEC1ERKS4_RKS5_
	.def	_ZNSt8_Rb_treeIPvS0_St9_IdentityIS0_ESt4lessIS0_ESaIS0_EEC1ERKS4_RKS5_;	.scl	2;	.type	32;	.endef
	.seh_proc	_ZNSt8_Rb_treeIPvS0_St9_IdentityIS0_ESt4lessIS0_ESaIS0_EEC1ERKS4_RKS5_
_ZNSt8_Rb_treeIPvS0_St9_IdentityIS0_ESt4lessIS0_ESaIS0_EEC1ERKS4_RKS5_:
.LFB9000:
	push	rbp
	.seh_pushreg	rbp
	push	rbx
	.seh_pushreg	rbx
	sub	rsp, 56
	.seh_stackalloc	56
	lea	rbp, 128[rsp]
	.seh_setframe	rbp, 128
	.seh_endprologue
	mov	QWORD PTR -48[rbp], rcx
	mov	QWORD PTR -40[rbp], rdx
	mov	QWORD PTR -32[rbp], r8
	mov	rbx, QWORD PTR -48[rbp]
	mov	rdx, QWORD PTR -32[rbp]
	lea	rax, -81[rbp]
	mov	rcx, rax
	call	_ZNSaISt13_Rb_tree_nodeIPvEEC1IS0_EERKSaIT_E
	lea	rdx, -81[rbp]
	mov	rax, QWORD PTR -40[rbp]
	mov	r8, rdx
	mov	rdx, rax
	mov	rcx, rbx
.LEHB50:
	call	_ZNSt8_Rb_treeIPvS0_St9_IdentityIS0_ESt4lessIS0_ESaIS0_EE13_Rb_tree_implIS4_Lb1EEC1ERKS4_OSaISt13_Rb_tree_nodeIS0_EE
.LEHE50:
	lea	rax, -81[rbp]
	mov	rcx, rax
	call	_ZNSaISt13_Rb_tree_nodeIPvEED1Ev
	jmp	.L366
.L365:
	mov	rbx, rax
	lea	rax, -81[rbp]
	mov	rcx, rax
	call	_ZNSaISt13_Rb_tree_nodeIPvEED1Ev
	mov	rax, rbx
	mov	rcx, rax
.LEHB51:
	call	_Unwind_Resume
	nop
.LEHE51:
.L366:
	add	rsp, 56
	pop	rbx
	pop	rbp
	ret
	.seh_handler	__gxx_personality_seh0, @unwind, @except
	.seh_handlerdata
.LLSDA9000:
	.byte	0xff
	.byte	0xff
	.byte	0x1
	.uleb128 .LLSDACSE9000-.LLSDACSB9000
.LLSDACSB9000:
	.uleb128 .LEHB50-.LFB9000
	.uleb128 .LEHE50-.LEHB50
	.uleb128 .L365-.LFB9000
	.uleb128 0
	.uleb128 .LEHB51-.LFB9000
	.uleb128 .LEHE51-.LEHB51
	.uleb128 0
	.uleb128 0
.LLSDACSE9000:
	.section	.text$_ZNSt8_Rb_treeIPvS0_St9_IdentityIS0_ESt4lessIS0_ESaIS0_EEC1ERKS4_RKS5_,"x"
	.linkonce discard
	.seh_endproc
	.section	.text$_ZNKSt16initializer_listIPvE5beginEv,"x"
	.linkonce discard
	.align 2
	.globl	_ZNKSt16initializer_listIPvE5beginEv
	.def	_ZNKSt16initializer_listIPvE5beginEv;	.scl	2;	.type	32;	.endef
	.seh_proc	_ZNKSt16initializer_listIPvE5beginEv
_ZNKSt16initializer_listIPvE5beginEv:
.LFB9001:
	push	rbp
	.seh_pushreg	rbp
	mov	rbp, rsp
	.seh_setframe	rbp, 0
	.seh_endprologue
	mov	QWORD PTR 16[rbp], rcx
	mov	rax, QWORD PTR 16[rbp]
	mov	rax, QWORD PTR [rax]
	pop	rbp
	ret
	.seh_endproc
	.section	.text$_ZNKSt16initializer_listIPvE3endEv,"x"
	.linkonce discard
	.align 2
	.globl	_ZNKSt16initializer_listIPvE3endEv
	.def	_ZNKSt16initializer_listIPvE3endEv;	.scl	2;	.type	32;	.endef
	.seh_proc	_ZNKSt16initializer_listIPvE3endEv
_ZNKSt16initializer_listIPvE3endEv:
.LFB9002:
	push	rbp
	.seh_pushreg	rbp
	push	rbx
	.seh_pushreg	rbx
	sub	rsp, 40
	.seh_stackalloc	40
	lea	rbp, 128[rsp]
	.seh_setframe	rbp, 128
	.seh_endprologue
	mov	QWORD PTR -64[rbp], rcx
	mov	rcx, QWORD PTR -64[rbp]
	call	_ZNKSt16initializer_listIPvE5beginEv
	mov	rbx, rax
	mov	rcx, QWORD PTR -64[rbp]
	call	_ZNKSt16initializer_listIPvE4sizeEv
	sal	rax, 3
	add	rax, rbx
	add	rsp, 40
	pop	rbx
	pop	rbp
	ret
	.seh_endproc
	.section	.text$_ZNSt8_Rb_treeIPvS0_St9_IdentityIS0_ESt4lessIS0_ESaIS0_EE16_M_insert_uniqueIPKS0_EEvT_SA_,"x"
	.linkonce discard
	.align 2
	.globl	_ZNSt8_Rb_treeIPvS0_St9_IdentityIS0_ESt4lessIS0_ESaIS0_EE16_M_insert_uniqueIPKS0_EEvT_SA_
	.def	_ZNSt8_Rb_treeIPvS0_St9_IdentityIS0_ESt4lessIS0_ESaIS0_EE16_M_insert_uniqueIPKS0_EEvT_SA_;	.scl	2;	.type	32;	.endef
	.seh_proc	_ZNSt8_Rb_treeIPvS0_St9_IdentityIS0_ESt4lessIS0_ESaIS0_EE16_M_insert_uniqueIPKS0_EEvT_SA_
_ZNSt8_Rb_treeIPvS0_St9_IdentityIS0_ESt4lessIS0_ESaIS0_EE16_M_insert_uniqueIPKS0_EEvT_SA_:
.LFB9003:
	push	rbp
	.seh_pushreg	rbp
	mov	rbp, rsp
	.seh_setframe	rbp, 0
	sub	rsp, 64
	.seh_stackalloc	64
	.seh_endprologue
	mov	QWORD PTR 16[rbp], rcx
	mov	QWORD PTR 24[rbp], rdx
	mov	QWORD PTR 32[rbp], r8
	lea	rax, -24[rbp]
	mov	rdx, QWORD PTR 16[rbp]
	mov	rcx, rax
	call	_ZNSt8_Rb_treeIPvS0_St9_IdentityIS0_ESt4lessIS0_ESaIS0_EE11_Alloc_nodeC1ERS6_
.L373:
	mov	rax, QWORD PTR 24[rbp]
	cmp	rax, QWORD PTR 32[rbp]
	je	.L374
	mov	rcx, QWORD PTR 16[rbp]
	call	_ZNSt8_Rb_treeIPvS0_St9_IdentityIS0_ESt4lessIS0_ESaIS0_EE3endEv
	mov	QWORD PTR -8[rbp], rax
	lea	rdx, -8[rbp]
	lea	rax, -16[rbp]
	mov	rcx, rax
	call	_ZNSt23_Rb_tree_const_iteratorIPvEC1ERKSt17_Rb_tree_iteratorIS0_E
	lea	rdx, -24[rbp]
	mov	rcx, QWORD PTR 24[rbp]
	mov	rax, QWORD PTR -16[rbp]
	mov	r9, rdx
	mov	r8, rcx
	mov	rdx, rax
	mov	rcx, QWORD PTR 16[rbp]
	call	_ZNSt8_Rb_treeIPvS0_St9_IdentityIS0_ESt4lessIS0_ESaIS0_EE17_M_insert_unique_IRKS0_NS6_11_Alloc_nodeEEESt17_Rb_tree_iteratorIS0_ESt23_Rb_tree_const_iteratorIS0_EOT_RT0_
	add	QWORD PTR 24[rbp], 8
	jmp	.L373
.L374:
	nop
	add	rsp, 64
	pop	rbp
	ret
	.seh_endproc
	.section	.text$_ZNSt8_Rb_treeIPvS0_St9_IdentityIS0_ESt4lessIS0_ESaIS0_EE8_M_eraseEPSt13_Rb_tree_nodeIS0_E,"x"
	.linkonce discard
	.align 2
	.globl	_ZNSt8_Rb_treeIPvS0_St9_IdentityIS0_ESt4lessIS0_ESaIS0_EE8_M_eraseEPSt13_Rb_tree_nodeIS0_E
	.def	_ZNSt8_Rb_treeIPvS0_St9_IdentityIS0_ESt4lessIS0_ESaIS0_EE8_M_eraseEPSt13_Rb_tree_nodeIS0_E;	.scl	2;	.type	32;	.endef
	.seh_proc	_ZNSt8_Rb_treeIPvS0_St9_IdentityIS0_ESt4lessIS0_ESaIS0_EE8_M_eraseEPSt13_Rb_tree_nodeIS0_E
_ZNSt8_Rb_treeIPvS0_St9_IdentityIS0_ESt4lessIS0_ESaIS0_EE8_M_eraseEPSt13_Rb_tree_nodeIS0_E:
.LFB9004:
	push	rbp
	.seh_pushreg	rbp
	mov	rbp, rsp
	.seh_setframe	rbp, 0
	sub	rsp, 48
	.seh_stackalloc	48
	.seh_endprologue
	mov	QWORD PTR 16[rbp], rcx
	mov	QWORD PTR 24[rbp], rdx
.L377:
	cmp	QWORD PTR 24[rbp], 0
	je	.L378
	mov	rax, QWORD PTR 24[rbp]
	mov	rcx, rax
	call	_ZNSt8_Rb_treeIPvS0_St9_IdentityIS0_ESt4lessIS0_ESaIS0_EE8_S_rightEPSt18_Rb_tree_node_base
	mov	rdx, rax
	mov	rcx, QWORD PTR 16[rbp]
	call	_ZNSt8_Rb_treeIPvS0_St9_IdentityIS0_ESt4lessIS0_ESaIS0_EE8_M_eraseEPSt13_Rb_tree_nodeIS0_E
	mov	rax, QWORD PTR 24[rbp]
	mov	rcx, rax
	call	_ZNSt8_Rb_treeIPvS0_St9_IdentityIS0_ESt4lessIS0_ESaIS0_EE7_S_leftEPSt18_Rb_tree_node_base
	mov	QWORD PTR -8[rbp], rax
	mov	rax, QWORD PTR 24[rbp]
	mov	rdx, rax
	mov	rcx, QWORD PTR 16[rbp]
	call	_ZNSt8_Rb_treeIPvS0_St9_IdentityIS0_ESt4lessIS0_ESaIS0_EE12_M_drop_nodeEPSt13_Rb_tree_nodeIS0_E
	mov	rax, QWORD PTR -8[rbp]
	mov	QWORD PTR 24[rbp], rax
	jmp	.L377
.L378:
	nop
	add	rsp, 48
	pop	rbp
	ret
	.seh_endproc
	.section	.text$_ZNSt8_Rb_treeIPvS0_St9_IdentityIS0_ESt4lessIS0_ESaIS0_EE8_M_beginEv,"x"
	.linkonce discard
	.align 2
	.globl	_ZNSt8_Rb_treeIPvS0_St9_IdentityIS0_ESt4lessIS0_ESaIS0_EE8_M_beginEv
	.def	_ZNSt8_Rb_treeIPvS0_St9_IdentityIS0_ESt4lessIS0_ESaIS0_EE8_M_beginEv;	.scl	2;	.type	32;	.endef
	.seh_proc	_ZNSt8_Rb_treeIPvS0_St9_IdentityIS0_ESt4lessIS0_ESaIS0_EE8_M_beginEv
_ZNSt8_Rb_treeIPvS0_St9_IdentityIS0_ESt4lessIS0_ESaIS0_EE8_M_beginEv:
.LFB9005:
	push	rbp
	.seh_pushreg	rbp
	mov	rbp, rsp
	.seh_setframe	rbp, 0
	.seh_endprologue
	mov	QWORD PTR 16[rbp], rcx
	mov	rax, QWORD PTR 16[rbp]
	mov	rax, QWORD PTR 16[rax]
	pop	rbp
	ret
	.seh_endproc
	.section	.text$_ZNSt8_Rb_treeIPcSt4pairIKS0_St6vectorIPN3ULR10MemberInfoESaIS6_EEESt10_Select1stIS9_ENS4_11cmp_chr_ptrESaIS9_EE5beginEv,"x"
	.linkonce discard
	.align 2
	.globl	_ZNSt8_Rb_treeIPcSt4pairIKS0_St6vectorIPN3ULR10MemberInfoESaIS6_EEESt10_Select1stIS9_ENS4_11cmp_chr_ptrESaIS9_EE5beginEv
	.def	_ZNSt8_Rb_treeIPcSt4pairIKS0_St6vectorIPN3ULR10MemberInfoESaIS6_EEESt10_Select1stIS9_ENS4_11cmp_chr_ptrESaIS9_EE5beginEv;	.scl	2;	.type	32;	.endef
	.seh_proc	_ZNSt8_Rb_treeIPcSt4pairIKS0_St6vectorIPN3ULR10MemberInfoESaIS6_EEESt10_Select1stIS9_ENS4_11cmp_chr_ptrESaIS9_EE5beginEv
_ZNSt8_Rb_treeIPcSt4pairIKS0_St6vectorIPN3ULR10MemberInfoESaIS6_EEESt10_Select1stIS9_ENS4_11cmp_chr_ptrESaIS9_EE5beginEv:
.LFB9006:
	push	rbp
	.seh_pushreg	rbp
	mov	rbp, rsp
	.seh_setframe	rbp, 0
	sub	rsp, 48
	.seh_stackalloc	48
	.seh_endprologue
	mov	QWORD PTR 16[rbp], rcx
	mov	rax, QWORD PTR 16[rbp]
	mov	rdx, QWORD PTR 24[rax]
	lea	rax, -8[rbp]
	mov	rcx, rax
	call	_ZNSt17_Rb_tree_iteratorISt4pairIKPcSt6vectorIPN3ULR10MemberInfoESaIS6_EEEEC1EPSt18_Rb_tree_node_base
	mov	rax, QWORD PTR -8[rbp]
	add	rsp, 48
	pop	rbp
	ret
	.seh_endproc
	.section	.text$_ZNSt8_Rb_treeIPcSt4pairIKS0_St6vectorIPN3ULR10MemberInfoESaIS6_EEESt10_Select1stIS9_ENS4_11cmp_chr_ptrESaIS9_EE3endEv,"x"
	.linkonce discard
	.align 2
	.globl	_ZNSt8_Rb_treeIPcSt4pairIKS0_St6vectorIPN3ULR10MemberInfoESaIS6_EEESt10_Select1stIS9_ENS4_11cmp_chr_ptrESaIS9_EE3endEv
	.def	_ZNSt8_Rb_treeIPcSt4pairIKS0_St6vectorIPN3ULR10MemberInfoESaIS6_EEESt10_Select1stIS9_ENS4_11cmp_chr_ptrESaIS9_EE3endEv;	.scl	2;	.type	32;	.endef
	.seh_proc	_ZNSt8_Rb_treeIPcSt4pairIKS0_St6vectorIPN3ULR10MemberInfoESaIS6_EEESt10_Select1stIS9_ENS4_11cmp_chr_ptrESaIS9_EE3endEv
_ZNSt8_Rb_treeIPcSt4pairIKS0_St6vectorIPN3ULR10MemberInfoESaIS6_EEESt10_Select1stIS9_ENS4_11cmp_chr_ptrESaIS9_EE3endEv:
.LFB9007:
	push	rbp
	.seh_pushreg	rbp
	mov	rbp, rsp
	.seh_setframe	rbp, 0
	sub	rsp, 48
	.seh_stackalloc	48
	.seh_endprologue
	mov	QWORD PTR 16[rbp], rcx
	mov	rax, QWORD PTR 16[rbp]
	lea	rdx, 8[rax]
	lea	rax, -8[rbp]
	mov	rcx, rax
	call	_ZNSt17_Rb_tree_iteratorISt4pairIKPcSt6vectorIPN3ULR10MemberInfoESaIS6_EEEEC1EPSt18_Rb_tree_node_base
	mov	rax, QWORD PTR -8[rbp]
	add	rsp, 48
	pop	rbp
	ret
	.seh_endproc
	.section	.text$_ZNSt13_Rb_tree_nodeISt4pairIKPcSt6vectorIPN3ULR10MemberInfoESaIS6_EEEE9_M_valptrEv,"x"
	.linkonce discard
	.align 2
	.globl	_ZNSt13_Rb_tree_nodeISt4pairIKPcSt6vectorIPN3ULR10MemberInfoESaIS6_EEEE9_M_valptrEv
	.def	_ZNSt13_Rb_tree_nodeISt4pairIKPcSt6vectorIPN3ULR10MemberInfoESaIS6_EEEE9_M_valptrEv;	.scl	2;	.type	32;	.endef
	.seh_proc	_ZNSt13_Rb_tree_nodeISt4pairIKPcSt6vectorIPN3ULR10MemberInfoESaIS6_EEEE9_M_valptrEv
_ZNSt13_Rb_tree_nodeISt4pairIKPcSt6vectorIPN3ULR10MemberInfoESaIS6_EEEE9_M_valptrEv:
.LFB9008:
	push	rbp
	.seh_pushreg	rbp
	mov	rbp, rsp
	.seh_setframe	rbp, 0
	sub	rsp, 32
	.seh_stackalloc	32
	.seh_endprologue
	mov	QWORD PTR 16[rbp], rcx
	mov	rax, QWORD PTR 16[rbp]
	add	rax, 32
	mov	rcx, rax
	call	_ZN9__gnu_cxx16__aligned_membufISt4pairIKPcSt6vectorIPN3ULR10MemberInfoESaIS7_EEEE6_M_ptrEv
	add	rsp, 32
	pop	rbp
	ret
	.seh_endproc
	.section	.text$_ZNKSt8_Rb_treeIPvS0_St9_IdentityIS0_ESt4lessIS0_ESaIS0_EE4findERKS0_,"x"
	.linkonce discard
	.align 2
	.globl	_ZNKSt8_Rb_treeIPvS0_St9_IdentityIS0_ESt4lessIS0_ESaIS0_EE4findERKS0_
	.def	_ZNKSt8_Rb_treeIPvS0_St9_IdentityIS0_ESt4lessIS0_ESaIS0_EE4findERKS0_;	.scl	2;	.type	32;	.endef
	.seh_proc	_ZNKSt8_Rb_treeIPvS0_St9_IdentityIS0_ESt4lessIS0_ESaIS0_EE4findERKS0_
_ZNKSt8_Rb_treeIPvS0_St9_IdentityIS0_ESt4lessIS0_ESaIS0_EE4findERKS0_:
.LFB9009:
	push	rbp
	.seh_pushreg	rbp
	push	rbx
	.seh_pushreg	rbx
	sub	rsp, 56
	.seh_stackalloc	56
	lea	rbp, 128[rsp]
	.seh_setframe	rbp, 128
	.seh_endprologue
	mov	QWORD PTR -48[rbp], rcx
	mov	QWORD PTR -40[rbp], rdx
	mov	rcx, QWORD PTR -48[rbp]
	call	_ZNKSt8_Rb_treeIPvS0_St9_IdentityIS0_ESt4lessIS0_ESaIS0_EE6_M_endEv
	mov	rbx, rax
	mov	rcx, QWORD PTR -48[rbp]
	call	_ZNKSt8_Rb_treeIPvS0_St9_IdentityIS0_ESt4lessIS0_ESaIS0_EE8_M_beginEv
	mov	rdx, rax
	mov	rax, QWORD PTR -40[rbp]
	mov	r9, rax
	mov	r8, rbx
	mov	rcx, QWORD PTR -48[rbp]
	call	_ZNKSt8_Rb_treeIPvS0_St9_IdentityIS0_ESt4lessIS0_ESaIS0_EE14_M_lower_boundEPKSt13_Rb_tree_nodeIS0_EPKSt18_Rb_tree_node_baseRKS0_
	mov	QWORD PTR -96[rbp], rax
	mov	rcx, QWORD PTR -48[rbp]
	call	_ZNKSt8_Rb_treeIPvS0_St9_IdentityIS0_ESt4lessIS0_ESaIS0_EE3endEv
	mov	QWORD PTR -88[rbp], rax
	lea	rdx, -88[rbp]
	lea	rax, -96[rbp]
	mov	rcx, rax
	call	_ZNKSt23_Rb_tree_const_iteratorIPvEeqERKS1_
	test	al, al
	jne	.L388
	mov	rbx, QWORD PTR -48[rbp]
	mov	rax, QWORD PTR -96[rbp]
	mov	rcx, rax
	call	_ZNSt8_Rb_treeIPvS0_St9_IdentityIS0_ESt4lessIS0_ESaIS0_EE6_S_keyEPKSt18_Rb_tree_node_base
	mov	rdx, QWORD PTR [rax]
	mov	rax, QWORD PTR -40[rbp]
	mov	rax, QWORD PTR [rax]
	mov	r8, rdx
	mov	rdx, rax
	mov	rcx, rbx
	call	_ZNKSt4lessIPvEclES0_S0_
	test	al, al
	je	.L389
.L388:
	mov	rcx, QWORD PTR -48[rbp]
	call	_ZNKSt8_Rb_treeIPvS0_St9_IdentityIS0_ESt4lessIS0_ESaIS0_EE3endEv
	jmp	.L391
.L389:
	mov	rax, QWORD PTR -96[rbp]
.L391:
	add	rsp, 56
	pop	rbx
	pop	rbp
	ret
	.seh_endproc
	.section	.text$_ZNKSt8_Rb_treeIPvS0_St9_IdentityIS0_ESt4lessIS0_ESaIS0_EE3endEv,"x"
	.linkonce discard
	.align 2
	.globl	_ZNKSt8_Rb_treeIPvS0_St9_IdentityIS0_ESt4lessIS0_ESaIS0_EE3endEv
	.def	_ZNKSt8_Rb_treeIPvS0_St9_IdentityIS0_ESt4lessIS0_ESaIS0_EE3endEv;	.scl	2;	.type	32;	.endef
	.seh_proc	_ZNKSt8_Rb_treeIPvS0_St9_IdentityIS0_ESt4lessIS0_ESaIS0_EE3endEv
_ZNKSt8_Rb_treeIPvS0_St9_IdentityIS0_ESt4lessIS0_ESaIS0_EE3endEv:
.LFB9010:
	push	rbp
	.seh_pushreg	rbp
	mov	rbp, rsp
	.seh_setframe	rbp, 0
	sub	rsp, 48
	.seh_stackalloc	48
	.seh_endprologue
	mov	QWORD PTR 16[rbp], rcx
	mov	rax, QWORD PTR 16[rbp]
	lea	rdx, 8[rax]
	lea	rax, -8[rbp]
	mov	rcx, rax
	call	_ZNSt23_Rb_tree_const_iteratorIPvEC1EPKSt18_Rb_tree_node_base
	mov	rax, QWORD PTR -8[rbp]
	add	rsp, 48
	pop	rbp
	ret
	.seh_endproc
	.section	.text$_ZNKSt23_Rb_tree_const_iteratorIPvEeqERKS1_,"x"
	.linkonce discard
	.align 2
	.globl	_ZNKSt23_Rb_tree_const_iteratorIPvEeqERKS1_
	.def	_ZNKSt23_Rb_tree_const_iteratorIPvEeqERKS1_;	.scl	2;	.type	32;	.endef
	.seh_proc	_ZNKSt23_Rb_tree_const_iteratorIPvEeqERKS1_
_ZNKSt23_Rb_tree_const_iteratorIPvEeqERKS1_:
.LFB9011:
	push	rbp
	.seh_pushreg	rbp
	mov	rbp, rsp
	.seh_setframe	rbp, 0
	.seh_endprologue
	mov	QWORD PTR 16[rbp], rcx
	mov	QWORD PTR 24[rbp], rdx
	mov	rax, QWORD PTR 16[rbp]
	mov	rdx, QWORD PTR [rax]
	mov	rax, QWORD PTR 24[rbp]
	mov	rax, QWORD PTR [rax]
	cmp	rdx, rax
	sete	al
	pop	rbp
	ret
	.seh_endproc
	.section	.text$_ZN9__gnu_cxx13new_allocatorISt13_Rb_tree_nodeIPvEEC2ERKS4_,"x"
	.linkonce discard
	.align 2
	.globl	_ZN9__gnu_cxx13new_allocatorISt13_Rb_tree_nodeIPvEEC2ERKS4_
	.def	_ZN9__gnu_cxx13new_allocatorISt13_Rb_tree_nodeIPvEEC2ERKS4_;	.scl	2;	.type	32;	.endef
	.seh_proc	_ZN9__gnu_cxx13new_allocatorISt13_Rb_tree_nodeIPvEEC2ERKS4_
_ZN9__gnu_cxx13new_allocatorISt13_Rb_tree_nodeIPvEEC2ERKS4_:
.LFB9013:
	push	rbp
	.seh_pushreg	rbp
	mov	rbp, rsp
	.seh_setframe	rbp, 0
	.seh_endprologue
	mov	QWORD PTR 16[rbp], rcx
	mov	QWORD PTR 24[rbp], rdx
	nop
	pop	rbp
	ret
	.seh_endproc
	.section	.text$_ZN9__gnu_cxx13new_allocatorISt13_Rb_tree_nodeIPvEED2Ev,"x"
	.linkonce discard
	.align 2
	.globl	_ZN9__gnu_cxx13new_allocatorISt13_Rb_tree_nodeIPvEED2Ev
	.def	_ZN9__gnu_cxx13new_allocatorISt13_Rb_tree_nodeIPvEED2Ev;	.scl	2;	.type	32;	.endef
	.seh_proc	_ZN9__gnu_cxx13new_allocatorISt13_Rb_tree_nodeIPvEED2Ev
_ZN9__gnu_cxx13new_allocatorISt13_Rb_tree_nodeIPvEED2Ev:
.LFB9016:
	push	rbp
	.seh_pushreg	rbp
	mov	rbp, rsp
	.seh_setframe	rbp, 0
	.seh_endprologue
	mov	QWORD PTR 16[rbp], rcx
	nop
	pop	rbp
	ret
	.seh_endproc
	.section	.text$_ZNKSt8_Rb_treeIPvS0_St9_IdentityIS0_ESt4lessIS0_ESaIS0_EE5beginEv,"x"
	.linkonce discard
	.align 2
	.globl	_ZNKSt8_Rb_treeIPvS0_St9_IdentityIS0_ESt4lessIS0_ESaIS0_EE5beginEv
	.def	_ZNKSt8_Rb_treeIPvS0_St9_IdentityIS0_ESt4lessIS0_ESaIS0_EE5beginEv;	.scl	2;	.type	32;	.endef
	.seh_proc	_ZNKSt8_Rb_treeIPvS0_St9_IdentityIS0_ESt4lessIS0_ESaIS0_EE5beginEv
_ZNKSt8_Rb_treeIPvS0_St9_IdentityIS0_ESt4lessIS0_ESaIS0_EE5beginEv:
.LFB9018:
	push	rbp
	.seh_pushreg	rbp
	mov	rbp, rsp
	.seh_setframe	rbp, 0
	sub	rsp, 48
	.seh_stackalloc	48
	.seh_endprologue
	mov	QWORD PTR 16[rbp], rcx
	mov	rax, QWORD PTR 16[rbp]
	mov	rdx, QWORD PTR 24[rax]
	lea	rax, -8[rbp]
	mov	rcx, rax
	call	_ZNSt23_Rb_tree_const_iteratorIPvEC1EPKSt18_Rb_tree_node_base
	mov	rax, QWORD PTR -8[rbp]
	add	rsp, 48
	pop	rbp
	ret
	.seh_endproc
	.section	.text$_ZNSt8_Rb_treeIPvS0_St9_IdentityIS0_ESt4lessIS0_ESaIS0_EE16_M_insert_uniqueISt23_Rb_tree_const_iteratorIS0_EEEvT_SA_,"x"
	.linkonce discard
	.align 2
	.globl	_ZNSt8_Rb_treeIPvS0_St9_IdentityIS0_ESt4lessIS0_ESaIS0_EE16_M_insert_uniqueISt23_Rb_tree_const_iteratorIS0_EEEvT_SA_
	.def	_ZNSt8_Rb_treeIPvS0_St9_IdentityIS0_ESt4lessIS0_ESaIS0_EE16_M_insert_uniqueISt23_Rb_tree_const_iteratorIS0_EEEvT_SA_;	.scl	2;	.type	32;	.endef
	.seh_proc	_ZNSt8_Rb_treeIPvS0_St9_IdentityIS0_ESt4lessIS0_ESaIS0_EE16_M_insert_uniqueISt23_Rb_tree_const_iteratorIS0_EEEvT_SA_
_ZNSt8_Rb_treeIPvS0_St9_IdentityIS0_ESt4lessIS0_ESaIS0_EE16_M_insert_uniqueISt23_Rb_tree_const_iteratorIS0_EEEvT_SA_:
.LFB9019:
	push	rbp
	.seh_pushreg	rbp
	push	rbx
	.seh_pushreg	rbx
	sub	rsp, 72
	.seh_stackalloc	72
	lea	rbp, 128[rsp]
	.seh_setframe	rbp, 128
	.seh_endprologue
	mov	QWORD PTR -32[rbp], rcx
	mov	QWORD PTR -24[rbp], rdx
	mov	QWORD PTR -16[rbp], r8
	lea	rax, -88[rbp]
	mov	rdx, QWORD PTR -32[rbp]
	mov	rcx, rax
	call	_ZNSt8_Rb_treeIPvS0_St9_IdentityIS0_ESt4lessIS0_ESaIS0_EE11_Alloc_nodeC1ERS6_
.L402:
	lea	rdx, -16[rbp]
	lea	rax, -24[rbp]
	mov	rcx, rax
	call	_ZNKSt23_Rb_tree_const_iteratorIPvEneERKS1_
	test	al, al
	je	.L403
	lea	rax, -24[rbp]
	mov	rcx, rax
	call	_ZNKSt23_Rb_tree_const_iteratorIPvEdeEv
	mov	rbx, rax
	mov	rcx, QWORD PTR -32[rbp]
	call	_ZNSt8_Rb_treeIPvS0_St9_IdentityIS0_ESt4lessIS0_ESaIS0_EE3endEv
	mov	QWORD PTR -72[rbp], rax
	lea	rdx, -72[rbp]
	lea	rax, -80[rbp]
	mov	rcx, rax
	call	_ZNSt23_Rb_tree_const_iteratorIPvEC1ERKSt17_Rb_tree_iteratorIS0_E
	lea	rdx, -88[rbp]
	mov	rax, QWORD PTR -80[rbp]
	mov	r9, rdx
	mov	r8, rbx
	mov	rdx, rax
	mov	rcx, QWORD PTR -32[rbp]
	call	_ZNSt8_Rb_treeIPvS0_St9_IdentityIS0_ESt4lessIS0_ESaIS0_EE17_M_insert_unique_IRKS0_NS6_11_Alloc_nodeEEESt17_Rb_tree_iteratorIS0_ESt23_Rb_tree_const_iteratorIS0_EOT_RT0_
	lea	rax, -24[rbp]
	mov	rcx, rax
	call	_ZNSt23_Rb_tree_const_iteratorIPvEppEv
	jmp	.L402
.L403:
	nop
	add	rsp, 72
	pop	rbx
	pop	rbp
	ret
	.seh_endproc
	.section	.text$_ZNSaISt13_Rb_tree_nodeIPvEEC2Ev,"x"
	.linkonce discard
	.align 2
	.globl	_ZNSaISt13_Rb_tree_nodeIPvEEC2Ev
	.def	_ZNSaISt13_Rb_tree_nodeIPvEEC2Ev;	.scl	2;	.type	32;	.endef
	.seh_proc	_ZNSaISt13_Rb_tree_nodeIPvEEC2Ev
_ZNSaISt13_Rb_tree_nodeIPvEEC2Ev:
.LFB9021:
	push	rbp
	.seh_pushreg	rbp
	mov	rbp, rsp
	.seh_setframe	rbp, 0
	sub	rsp, 32
	.seh_stackalloc	32
	.seh_endprologue
	mov	QWORD PTR 16[rbp], rcx
	mov	rcx, QWORD PTR 16[rbp]
	call	_ZN9__gnu_cxx13new_allocatorISt13_Rb_tree_nodeIPvEEC2Ev
	nop
	add	rsp, 32
	pop	rbp
	ret
	.seh_endproc
	.section	.text$_ZNSt20_Rb_tree_key_compareISt4lessIPvEEC2Ev,"x"
	.linkonce discard
	.align 2
	.globl	_ZNSt20_Rb_tree_key_compareISt4lessIPvEEC2Ev
	.def	_ZNSt20_Rb_tree_key_compareISt4lessIPvEEC2Ev;	.scl	2;	.type	32;	.endef
	.seh_proc	_ZNSt20_Rb_tree_key_compareISt4lessIPvEEC2Ev
_ZNSt20_Rb_tree_key_compareISt4lessIPvEEC2Ev:
.LFB9024:
	push	rbp
	.seh_pushreg	rbp
	mov	rbp, rsp
	.seh_setframe	rbp, 0
	.seh_endprologue
	mov	QWORD PTR 16[rbp], rcx
	nop
	pop	rbp
	ret
	.seh_endproc
	.section	.text$_ZNKSt13_Rb_tree_nodeIPvE9_M_valptrEv,"x"
	.linkonce discard
	.align 2
	.globl	_ZNKSt13_Rb_tree_nodeIPvE9_M_valptrEv
	.def	_ZNKSt13_Rb_tree_nodeIPvE9_M_valptrEv;	.scl	2;	.type	32;	.endef
	.seh_proc	_ZNKSt13_Rb_tree_nodeIPvE9_M_valptrEv
_ZNKSt13_Rb_tree_nodeIPvE9_M_valptrEv:
.LFB9026:
	push	rbp
	.seh_pushreg	rbp
	mov	rbp, rsp
	.seh_setframe	rbp, 0
	sub	rsp, 32
	.seh_stackalloc	32
	.seh_endprologue
	mov	QWORD PTR 16[rbp], rcx
	mov	rax, QWORD PTR 16[rbp]
	add	rax, 32
	mov	rcx, rax
	call	_ZNK9__gnu_cxx16__aligned_membufIPvE6_M_ptrEv
	add	rsp, 32
	pop	rbp
	ret
	.seh_endproc
	.section	.text$_ZNSt8_Rb_treeIPvS0_St9_IdentityIS0_ESt4lessIS0_ESaIS0_EE17_M_emplace_uniqueIJRS0_EEESt4pairISt17_Rb_tree_iteratorIS0_EbEDpOT_,"x"
	.linkonce discard
	.align 2
	.globl	_ZNSt8_Rb_treeIPvS0_St9_IdentityIS0_ESt4lessIS0_ESaIS0_EE17_M_emplace_uniqueIJRS0_EEESt4pairISt17_Rb_tree_iteratorIS0_EbEDpOT_
	.def	_ZNSt8_Rb_treeIPvS0_St9_IdentityIS0_ESt4lessIS0_ESaIS0_EE17_M_emplace_uniqueIJRS0_EEESt4pairISt17_Rb_tree_iteratorIS0_EbEDpOT_;	.scl	2;	.type	32;	.endef
	.seh_proc	_ZNSt8_Rb_treeIPvS0_St9_IdentityIS0_ESt4lessIS0_ESaIS0_EE17_M_emplace_uniqueIJRS0_EEESt4pairISt17_Rb_tree_iteratorIS0_EbEDpOT_
_ZNSt8_Rb_treeIPvS0_St9_IdentityIS0_ESt4lessIS0_ESaIS0_EE17_M_emplace_uniqueIJRS0_EEESt4pairISt17_Rb_tree_iteratorIS0_EbEDpOT_:
.LFB9027:
	push	rbp
	.seh_pushreg	rbp
	push	rbx
	.seh_pushreg	rbx
	sub	rsp, 104
	.seh_stackalloc	104
	lea	rbp, 128[rsp]
	.seh_setframe	rbp, 128
	.seh_endprologue
	mov	QWORD PTR 0[rbp], rcx
	mov	QWORD PTR 8[rbp], rdx
	mov	QWORD PTR 16[rbp], r8
	mov	rax, QWORD PTR 16[rbp]
	mov	rcx, rax
	call	_ZSt7forwardIRPvEOT_RNSt16remove_referenceIS2_E4typeE
	mov	rdx, rax
	mov	rax, QWORD PTR 8[rbp]
	mov	rcx, rax
.LEHB52:
	call	_ZNSt8_Rb_treeIPvS0_St9_IdentityIS0_ESt4lessIS0_ESaIS0_EE14_M_create_nodeIJRS0_EEEPSt13_Rb_tree_nodeIS0_EDpOT_
.LEHE52:
	mov	QWORD PTR -40[rbp], rax
	mov	rax, QWORD PTR -40[rbp]
	mov	rcx, rax
.LEHB53:
	call	_ZNSt8_Rb_treeIPvS0_St9_IdentityIS0_ESt4lessIS0_ESaIS0_EE6_S_keyEPKSt13_Rb_tree_nodeIS0_E
	mov	rcx, rax
	lea	rax, -96[rbp]
	mov	rdx, QWORD PTR 8[rbp]
	mov	r8, rcx
	mov	rcx, rax
	call	_ZNSt8_Rb_treeIPvS0_St9_IdentityIS0_ESt4lessIS0_ESaIS0_EE24_M_get_insert_unique_posERKS0_
	mov	rax, QWORD PTR -88[rbp]
	test	rax, rax
	je	.L409
	mov	BYTE PTR -65[rbp], 1
	mov	rcx, QWORD PTR -88[rbp]
	mov	rdx, QWORD PTR -96[rbp]
	mov	r8, QWORD PTR -40[rbp]
	mov	rax, QWORD PTR 8[rbp]
	mov	r9, r8
	mov	r8, rcx
	mov	rcx, rax
	call	_ZNSt8_Rb_treeIPvS0_St9_IdentityIS0_ESt4lessIS0_ESaIS0_EE14_M_insert_nodeEPSt18_Rb_tree_node_baseS8_PSt13_Rb_tree_nodeIS0_E
.LEHE53:
	mov	QWORD PTR -64[rbp], rax
	lea	rdx, -65[rbp]
	lea	rax, -64[rbp]
	mov	r8, rdx
	mov	rdx, rax
	mov	rcx, QWORD PTR 0[rbp]
	call	_ZNSt4pairISt17_Rb_tree_iteratorIPvEbEC1IS2_bLb1EEEOT_OT0_
	jmp	.L408
.L409:
	mov	rdx, QWORD PTR -40[rbp]
	mov	rax, QWORD PTR 8[rbp]
	mov	rcx, rax
	call	_ZNSt8_Rb_treeIPvS0_St9_IdentityIS0_ESt4lessIS0_ESaIS0_EE12_M_drop_nodeEPSt13_Rb_tree_nodeIS0_E
	mov	BYTE PTR -49[rbp], 0
	mov	rdx, QWORD PTR -96[rbp]
	lea	rax, -48[rbp]
	mov	rcx, rax
	call	_ZNSt17_Rb_tree_iteratorIPvEC1EPSt18_Rb_tree_node_base
	lea	rdx, -49[rbp]
	lea	rax, -48[rbp]
	mov	r8, rdx
	mov	rdx, rax
	mov	rcx, QWORD PTR 0[rbp]
	call	_ZNSt4pairISt17_Rb_tree_iteratorIPvEbEC1IS2_bLb1EEEOT_OT0_
	jmp	.L408
.L414:
	mov	rcx, rax
	call	__cxa_begin_catch
	mov	rdx, QWORD PTR -40[rbp]
	mov	rax, QWORD PTR 8[rbp]
	mov	rcx, rax
	call	_ZNSt8_Rb_treeIPvS0_St9_IdentityIS0_ESt4lessIS0_ESaIS0_EE12_M_drop_nodeEPSt13_Rb_tree_nodeIS0_E
.LEHB54:
	call	__cxa_rethrow
.LEHE54:
.L415:
	mov	rbx, rax
	call	__cxa_end_catch
	mov	rax, rbx
	mov	rcx, rax
.LEHB55:
	call	_Unwind_Resume
.LEHE55:
.L408:
	mov	rax, QWORD PTR 0[rbp]
	add	rsp, 104
	pop	rbx
	pop	rbp
	ret
	.seh_handler	__gxx_personality_seh0, @unwind, @except
	.seh_handlerdata
	.align 4
.LLSDA9027:
	.byte	0xff
	.byte	0x9b
	.uleb128 .LLSDATT9027-.LLSDATTD9027
.LLSDATTD9027:
	.byte	0x1
	.uleb128 .LLSDACSE9027-.LLSDACSB9027
.LLSDACSB9027:
	.uleb128 .LEHB52-.LFB9027
	.uleb128 .LEHE52-.LEHB52
	.uleb128 0
	.uleb128 0
	.uleb128 .LEHB53-.LFB9027
	.uleb128 .LEHE53-.LEHB53
	.uleb128 .L414-.LFB9027
	.uleb128 0x1
	.uleb128 .LEHB54-.LFB9027
	.uleb128 .LEHE54-.LEHB54
	.uleb128 .L415-.LFB9027
	.uleb128 0
	.uleb128 .LEHB55-.LFB9027
	.uleb128 .LEHE55-.LEHB55
	.uleb128 0
	.uleb128 0
.LLSDACSE9027:
	.byte	0x1
	.byte	0
	.align 4
	.long	0

.LLSDATT9027:
	.section	.text$_ZNSt8_Rb_treeIPvS0_St9_IdentityIS0_ESt4lessIS0_ESaIS0_EE17_M_emplace_uniqueIJRS0_EEESt4pairISt17_Rb_tree_iteratorIS0_EbEDpOT_,"x"
	.linkonce discard
	.seh_endproc
	.section	.text$_ZNSt4pairISt23_Rb_tree_const_iteratorIPvEbEC1ISt17_Rb_tree_iteratorIS1_EbLb1EEEOS_IT_T0_E,"x"
	.linkonce discard
	.align 2
	.globl	_ZNSt4pairISt23_Rb_tree_const_iteratorIPvEbEC1ISt17_Rb_tree_iteratorIS1_EbLb1EEEOS_IT_T0_E
	.def	_ZNSt4pairISt23_Rb_tree_const_iteratorIPvEbEC1ISt17_Rb_tree_iteratorIS1_EbLb1EEEOS_IT_T0_E;	.scl	2;	.type	32;	.endef
	.seh_proc	_ZNSt4pairISt23_Rb_tree_const_iteratorIPvEbEC1ISt17_Rb_tree_iteratorIS1_EbLb1EEEOS_IT_T0_E
_ZNSt4pairISt23_Rb_tree_const_iteratorIPvEbEC1ISt17_Rb_tree_iteratorIS1_EbLb1EEEOS_IT_T0_E:
.LFB9042:
	push	rbp
	.seh_pushreg	rbp
	push	rbx
	.seh_pushreg	rbx
	sub	rsp, 40
	.seh_stackalloc	40
	lea	rbp, 128[rsp]
	.seh_setframe	rbp, 128
	.seh_endprologue
	mov	QWORD PTR -64[rbp], rcx
	mov	QWORD PTR -56[rbp], rdx
	mov	rbx, QWORD PTR -64[rbp]
	mov	rax, QWORD PTR -56[rbp]
	mov	rcx, rax
	call	_ZSt7forwardISt17_Rb_tree_iteratorIPvEEOT_RNSt16remove_referenceIS3_E4typeE
	mov	rdx, rax
	mov	rcx, rbx
	call	_ZNSt23_Rb_tree_const_iteratorIPvEC1ERKSt17_Rb_tree_iteratorIS0_E
	mov	rax, QWORD PTR -56[rbp]
	add	rax, 8
	mov	rcx, rax
	call	_ZSt7forwardIbEOT_RNSt16remove_referenceIS0_E4typeE
	movzx	eax, BYTE PTR [rax]
	mov	rdx, QWORD PTR -64[rbp]
	mov	BYTE PTR 8[rdx], al
	nop
	add	rsp, 40
	pop	rbx
	pop	rbp
	ret
	.seh_endproc
	.section	.text$_ZNSt8_Rb_treeIPcSt4pairIKS0_PN3ULR4TypeEESt10_Select1stIS6_ENS3_11cmp_chr_ptrESaIS6_EE5beginEv,"x"
	.linkonce discard
	.align 2
	.globl	_ZNSt8_Rb_treeIPcSt4pairIKS0_PN3ULR4TypeEESt10_Select1stIS6_ENS3_11cmp_chr_ptrESaIS6_EE5beginEv
	.def	_ZNSt8_Rb_treeIPcSt4pairIKS0_PN3ULR4TypeEESt10_Select1stIS6_ENS3_11cmp_chr_ptrESaIS6_EE5beginEv;	.scl	2;	.type	32;	.endef
	.seh_proc	_ZNSt8_Rb_treeIPcSt4pairIKS0_PN3ULR4TypeEESt10_Select1stIS6_ENS3_11cmp_chr_ptrESaIS6_EE5beginEv
_ZNSt8_Rb_treeIPcSt4pairIKS0_PN3ULR4TypeEESt10_Select1stIS6_ENS3_11cmp_chr_ptrESaIS6_EE5beginEv:
.LFB9043:
	push	rbp
	.seh_pushreg	rbp
	mov	rbp, rsp
	.seh_setframe	rbp, 0
	sub	rsp, 48
	.seh_stackalloc	48
	.seh_endprologue
	mov	QWORD PTR 16[rbp], rcx
	mov	rax, QWORD PTR 16[rbp]
	mov	rdx, QWORD PTR 24[rax]
	lea	rax, -8[rbp]
	mov	rcx, rax
	call	_ZNSt17_Rb_tree_iteratorISt4pairIKPcPN3ULR4TypeEEEC1EPSt18_Rb_tree_node_base
	mov	rax, QWORD PTR -8[rbp]
	add	rsp, 48
	pop	rbp
	ret
	.seh_endproc
	.section	.text$_ZNSt8_Rb_treeIPcSt4pairIKS0_PN3ULR4TypeEESt10_Select1stIS6_ENS3_11cmp_chr_ptrESaIS6_EE3endEv,"x"
	.linkonce discard
	.align 2
	.globl	_ZNSt8_Rb_treeIPcSt4pairIKS0_PN3ULR4TypeEESt10_Select1stIS6_ENS3_11cmp_chr_ptrESaIS6_EE3endEv
	.def	_ZNSt8_Rb_treeIPcSt4pairIKS0_PN3ULR4TypeEESt10_Select1stIS6_ENS3_11cmp_chr_ptrESaIS6_EE3endEv;	.scl	2;	.type	32;	.endef
	.seh_proc	_ZNSt8_Rb_treeIPcSt4pairIKS0_PN3ULR4TypeEESt10_Select1stIS6_ENS3_11cmp_chr_ptrESaIS6_EE3endEv
_ZNSt8_Rb_treeIPcSt4pairIKS0_PN3ULR4TypeEESt10_Select1stIS6_ENS3_11cmp_chr_ptrESaIS6_EE3endEv:
.LFB9044:
	push	rbp
	.seh_pushreg	rbp
	mov	rbp, rsp
	.seh_setframe	rbp, 0
	sub	rsp, 48
	.seh_stackalloc	48
	.seh_endprologue
	mov	QWORD PTR 16[rbp], rcx
	mov	rax, QWORD PTR 16[rbp]
	lea	rdx, 8[rax]
	lea	rax, -8[rbp]
	mov	rcx, rax
	call	_ZNSt17_Rb_tree_iteratorISt4pairIKPcPN3ULR4TypeEEEC1EPSt18_Rb_tree_node_base
	mov	rax, QWORD PTR -8[rbp]
	add	rsp, 48
	pop	rbp
	ret
	.seh_endproc
	.section	.text$_ZNSt13_Rb_tree_nodeISt4pairIKPcPN3ULR4TypeEEE9_M_valptrEv,"x"
	.linkonce discard
	.align 2
	.globl	_ZNSt13_Rb_tree_nodeISt4pairIKPcPN3ULR4TypeEEE9_M_valptrEv
	.def	_ZNSt13_Rb_tree_nodeISt4pairIKPcPN3ULR4TypeEEE9_M_valptrEv;	.scl	2;	.type	32;	.endef
	.seh_proc	_ZNSt13_Rb_tree_nodeISt4pairIKPcPN3ULR4TypeEEE9_M_valptrEv
_ZNSt13_Rb_tree_nodeISt4pairIKPcPN3ULR4TypeEEE9_M_valptrEv:
.LFB9045:
	push	rbp
	.seh_pushreg	rbp
	mov	rbp, rsp
	.seh_setframe	rbp, 0
	sub	rsp, 32
	.seh_stackalloc	32
	.seh_endprologue
	mov	QWORD PTR 16[rbp], rcx
	mov	rax, QWORD PTR 16[rbp]
	add	rax, 32
	mov	rcx, rax
	call	_ZN9__gnu_cxx16__aligned_membufISt4pairIKPcPN3ULR4TypeEEE6_M_ptrEv
	add	rsp, 32
	pop	rbp
	ret
	.seh_endproc
	.section	.text$_ZNSt8_Rb_treeIPvS0_St9_IdentityIS0_ESt4lessIS0_ESaIS0_EE13_Rb_tree_implIS4_Lb1EEC1ERKS8_,"x"
	.linkonce discard
	.align 2
	.globl	_ZNSt8_Rb_treeIPvS0_St9_IdentityIS0_ESt4lessIS0_ESaIS0_EE13_Rb_tree_implIS4_Lb1EEC1ERKS8_
	.def	_ZNSt8_Rb_treeIPvS0_St9_IdentityIS0_ESt4lessIS0_ESaIS0_EE13_Rb_tree_implIS4_Lb1EEC1ERKS8_;	.scl	2;	.type	32;	.endef
	.seh_proc	_ZNSt8_Rb_treeIPvS0_St9_IdentityIS0_ESt4lessIS0_ESaIS0_EE13_Rb_tree_implIS4_Lb1EEC1ERKS8_
_ZNSt8_Rb_treeIPvS0_St9_IdentityIS0_ESt4lessIS0_ESaIS0_EE13_Rb_tree_implIS4_Lb1EEC1ERKS8_:
.LFB9048:
	push	rbp
	.seh_pushreg	rbp
	mov	rbp, rsp
	.seh_setframe	rbp, 0
	sub	rsp, 32
	.seh_stackalloc	32
	.seh_endprologue
	mov	QWORD PTR 16[rbp], rcx
	mov	QWORD PTR 24[rbp], rdx
	mov	rax, QWORD PTR 16[rbp]
	mov	rdx, QWORD PTR 24[rbp]
	mov	rcx, rax
	call	_ZN9__gnu_cxx14__alloc_traitsISaISt13_Rb_tree_nodeIPvEES3_E17_S_select_on_copyERKS4_
	mov	rax, QWORD PTR 16[rbp]
	mov	rdx, QWORD PTR 24[rbp]
	mov	rcx, rax
	call	_ZNSt20_Rb_tree_key_compareISt4lessIPvEEC2ERKS2_
	mov	rax, QWORD PTR 16[rbp]
	add	rax, 8
	mov	rcx, rax
	call	_ZNSt15_Rb_tree_headerC2Ev
	nop
	add	rsp, 32
	pop	rbp
	ret
	.seh_endproc
	.section	.text$_ZNKSt8_Rb_treeIPvS0_St9_IdentityIS0_ESt4lessIS0_ESaIS0_EE7_M_rootEv,"x"
	.linkonce discard
	.align 2
	.globl	_ZNKSt8_Rb_treeIPvS0_St9_IdentityIS0_ESt4lessIS0_ESaIS0_EE7_M_rootEv
	.def	_ZNKSt8_Rb_treeIPvS0_St9_IdentityIS0_ESt4lessIS0_ESaIS0_EE7_M_rootEv;	.scl	2;	.type	32;	.endef
	.seh_proc	_ZNKSt8_Rb_treeIPvS0_St9_IdentityIS0_ESt4lessIS0_ESaIS0_EE7_M_rootEv
_ZNKSt8_Rb_treeIPvS0_St9_IdentityIS0_ESt4lessIS0_ESaIS0_EE7_M_rootEv:
.LFB9049:
	push	rbp
	.seh_pushreg	rbp
	mov	rbp, rsp
	.seh_setframe	rbp, 0
	.seh_endprologue
	mov	QWORD PTR 16[rbp], rcx
	mov	rax, QWORD PTR 16[rbp]
	mov	rax, QWORD PTR 16[rax]
	pop	rbp
	ret
	.seh_endproc
	.section	.text$_ZNSt8_Rb_treeIPvS0_St9_IdentityIS0_ESt4lessIS0_ESaIS0_EE7_M_rootEv,"x"
	.linkonce discard
	.align 2
	.globl	_ZNSt8_Rb_treeIPvS0_St9_IdentityIS0_ESt4lessIS0_ESaIS0_EE7_M_rootEv
	.def	_ZNSt8_Rb_treeIPvS0_St9_IdentityIS0_ESt4lessIS0_ESaIS0_EE7_M_rootEv;	.scl	2;	.type	32;	.endef
	.seh_proc	_ZNSt8_Rb_treeIPvS0_St9_IdentityIS0_ESt4lessIS0_ESaIS0_EE7_M_rootEv
_ZNSt8_Rb_treeIPvS0_St9_IdentityIS0_ESt4lessIS0_ESaIS0_EE7_M_rootEv:
.LFB9050:
	push	rbp
	.seh_pushreg	rbp
	mov	rbp, rsp
	.seh_setframe	rbp, 0
	.seh_endprologue
	mov	QWORD PTR 16[rbp], rcx
	mov	rax, QWORD PTR 16[rbp]
	add	rax, 16
	pop	rbp
	ret
	.seh_endproc
	.section	.text$_ZNSt8_Rb_treeIPvS0_St9_IdentityIS0_ESt4lessIS0_ESaIS0_EE7_M_copyERKS6_,"x"
	.linkonce discard
	.align 2
	.globl	_ZNSt8_Rb_treeIPvS0_St9_IdentityIS0_ESt4lessIS0_ESaIS0_EE7_M_copyERKS6_
	.def	_ZNSt8_Rb_treeIPvS0_St9_IdentityIS0_ESt4lessIS0_ESaIS0_EE7_M_copyERKS6_;	.scl	2;	.type	32;	.endef
	.seh_proc	_ZNSt8_Rb_treeIPvS0_St9_IdentityIS0_ESt4lessIS0_ESaIS0_EE7_M_copyERKS6_
_ZNSt8_Rb_treeIPvS0_St9_IdentityIS0_ESt4lessIS0_ESaIS0_EE7_M_copyERKS6_:
.LFB9051:
	push	rbp
	.seh_pushreg	rbp
	mov	rbp, rsp
	.seh_setframe	rbp, 0
	sub	rsp, 48
	.seh_stackalloc	48
	.seh_endprologue
	mov	QWORD PTR 16[rbp], rcx
	mov	QWORD PTR 24[rbp], rdx
	lea	rax, -8[rbp]
	mov	rdx, QWORD PTR 16[rbp]
	mov	rcx, rax
	call	_ZNSt8_Rb_treeIPvS0_St9_IdentityIS0_ESt4lessIS0_ESaIS0_EE11_Alloc_nodeC1ERS6_
	lea	rdx, -8[rbp]
	mov	rax, QWORD PTR 24[rbp]
	mov	r8, rdx
	mov	rdx, rax
	mov	rcx, QWORD PTR 16[rbp]
	call	_ZNSt8_Rb_treeIPvS0_St9_IdentityIS0_ESt4lessIS0_ESaIS0_EE7_M_copyINS6_11_Alloc_nodeEEEPSt13_Rb_tree_nodeIS0_ERKS6_RT_
	add	rsp, 48
	pop	rbp
	ret
	.seh_endproc
	.section	.text$_ZNSt8_Rb_treeIPvSt4pairIKS0_yESt10_Select1stIS3_ESt4lessIS0_ESaIS3_EE13_Rb_tree_implIS7_Lb1EEC1ERKSB_,"x"
	.linkonce discard
	.align 2
	.globl	_ZNSt8_Rb_treeIPvSt4pairIKS0_yESt10_Select1stIS3_ESt4lessIS0_ESaIS3_EE13_Rb_tree_implIS7_Lb1EEC1ERKSB_
	.def	_ZNSt8_Rb_treeIPvSt4pairIKS0_yESt10_Select1stIS3_ESt4lessIS0_ESaIS3_EE13_Rb_tree_implIS7_Lb1EEC1ERKSB_;	.scl	2;	.type	32;	.endef
	.seh_proc	_ZNSt8_Rb_treeIPvSt4pairIKS0_yESt10_Select1stIS3_ESt4lessIS0_ESaIS3_EE13_Rb_tree_implIS7_Lb1EEC1ERKSB_
_ZNSt8_Rb_treeIPvSt4pairIKS0_yESt10_Select1stIS3_ESt4lessIS0_ESaIS3_EE13_Rb_tree_implIS7_Lb1EEC1ERKSB_:
.LFB9054:
	push	rbp
	.seh_pushreg	rbp
	mov	rbp, rsp
	.seh_setframe	rbp, 0
	sub	rsp, 32
	.seh_stackalloc	32
	.seh_endprologue
	mov	QWORD PTR 16[rbp], rcx
	mov	QWORD PTR 24[rbp], rdx
	mov	rax, QWORD PTR 16[rbp]
	mov	rdx, QWORD PTR 24[rbp]
	mov	rcx, rax
	call	_ZN9__gnu_cxx14__alloc_traitsISaISt13_Rb_tree_nodeISt4pairIKPvyEEES6_E17_S_select_on_copyERKS7_
	mov	rax, QWORD PTR 16[rbp]
	mov	rdx, QWORD PTR 24[rbp]
	mov	rcx, rax
	call	_ZNSt20_Rb_tree_key_compareISt4lessIPvEEC2ERKS2_
	mov	rax, QWORD PTR 16[rbp]
	add	rax, 8
	mov	rcx, rax
	call	_ZNSt15_Rb_tree_headerC2Ev
	nop
	add	rsp, 32
	pop	rbp
	ret
	.seh_endproc
	.section	.text$_ZNSaISt13_Rb_tree_nodeISt4pairIKPvyEEED2Ev,"x"
	.linkonce discard
	.align 2
	.globl	_ZNSaISt13_Rb_tree_nodeISt4pairIKPvyEEED2Ev
	.def	_ZNSaISt13_Rb_tree_nodeISt4pairIKPvyEEED2Ev;	.scl	2;	.type	32;	.endef
	.seh_proc	_ZNSaISt13_Rb_tree_nodeISt4pairIKPvyEEED2Ev
_ZNSaISt13_Rb_tree_nodeISt4pairIKPvyEEED2Ev:
.LFB9056:
	push	rbp
	.seh_pushreg	rbp
	mov	rbp, rsp
	.seh_setframe	rbp, 0
	sub	rsp, 32
	.seh_stackalloc	32
	.seh_endprologue
	mov	QWORD PTR 16[rbp], rcx
	mov	rcx, QWORD PTR 16[rbp]
	call	_ZN9__gnu_cxx13new_allocatorISt13_Rb_tree_nodeISt4pairIKPvyEEED2Ev
	nop
	add	rsp, 32
	pop	rbp
	ret
	.seh_endproc
	.section	.text$_ZNKSt8_Rb_treeIPvSt4pairIKS0_yESt10_Select1stIS3_ESt4lessIS0_ESaIS3_EE7_M_rootEv,"x"
	.linkonce discard
	.align 2
	.globl	_ZNKSt8_Rb_treeIPvSt4pairIKS0_yESt10_Select1stIS3_ESt4lessIS0_ESaIS3_EE7_M_rootEv
	.def	_ZNKSt8_Rb_treeIPvSt4pairIKS0_yESt10_Select1stIS3_ESt4lessIS0_ESaIS3_EE7_M_rootEv;	.scl	2;	.type	32;	.endef
	.seh_proc	_ZNKSt8_Rb_treeIPvSt4pairIKS0_yESt10_Select1stIS3_ESt4lessIS0_ESaIS3_EE7_M_rootEv
_ZNKSt8_Rb_treeIPvSt4pairIKS0_yESt10_Select1stIS3_ESt4lessIS0_ESaIS3_EE7_M_rootEv:
.LFB9058:
	push	rbp
	.seh_pushreg	rbp
	mov	rbp, rsp
	.seh_setframe	rbp, 0
	.seh_endprologue
	mov	QWORD PTR 16[rbp], rcx
	mov	rax, QWORD PTR 16[rbp]
	mov	rax, QWORD PTR 16[rax]
	pop	rbp
	ret
	.seh_endproc
	.section	.text$_ZNSt8_Rb_treeIPvSt4pairIKS0_yESt10_Select1stIS3_ESt4lessIS0_ESaIS3_EE7_M_rootEv,"x"
	.linkonce discard
	.align 2
	.globl	_ZNSt8_Rb_treeIPvSt4pairIKS0_yESt10_Select1stIS3_ESt4lessIS0_ESaIS3_EE7_M_rootEv
	.def	_ZNSt8_Rb_treeIPvSt4pairIKS0_yESt10_Select1stIS3_ESt4lessIS0_ESaIS3_EE7_M_rootEv;	.scl	2;	.type	32;	.endef
	.seh_proc	_ZNSt8_Rb_treeIPvSt4pairIKS0_yESt10_Select1stIS3_ESt4lessIS0_ESaIS3_EE7_M_rootEv
_ZNSt8_Rb_treeIPvSt4pairIKS0_yESt10_Select1stIS3_ESt4lessIS0_ESaIS3_EE7_M_rootEv:
.LFB9059:
	push	rbp
	.seh_pushreg	rbp
	mov	rbp, rsp
	.seh_setframe	rbp, 0
	.seh_endprologue
	mov	QWORD PTR 16[rbp], rcx
	mov	rax, QWORD PTR 16[rbp]
	add	rax, 16
	pop	rbp
	ret
	.seh_endproc
	.section	.text$_ZNSt8_Rb_treeIPvSt4pairIKS0_yESt10_Select1stIS3_ESt4lessIS0_ESaIS3_EE7_M_copyERKS9_,"x"
	.linkonce discard
	.align 2
	.globl	_ZNSt8_Rb_treeIPvSt4pairIKS0_yESt10_Select1stIS3_ESt4lessIS0_ESaIS3_EE7_M_copyERKS9_
	.def	_ZNSt8_Rb_treeIPvSt4pairIKS0_yESt10_Select1stIS3_ESt4lessIS0_ESaIS3_EE7_M_copyERKS9_;	.scl	2;	.type	32;	.endef
	.seh_proc	_ZNSt8_Rb_treeIPvSt4pairIKS0_yESt10_Select1stIS3_ESt4lessIS0_ESaIS3_EE7_M_copyERKS9_
_ZNSt8_Rb_treeIPvSt4pairIKS0_yESt10_Select1stIS3_ESt4lessIS0_ESaIS3_EE7_M_copyERKS9_:
.LFB9060:
	push	rbp
	.seh_pushreg	rbp
	mov	rbp, rsp
	.seh_setframe	rbp, 0
	sub	rsp, 48
	.seh_stackalloc	48
	.seh_endprologue
	mov	QWORD PTR 16[rbp], rcx
	mov	QWORD PTR 24[rbp], rdx
	lea	rax, -8[rbp]
	mov	rdx, QWORD PTR 16[rbp]
	mov	rcx, rax
	call	_ZNSt8_Rb_treeIPvSt4pairIKS0_yESt10_Select1stIS3_ESt4lessIS0_ESaIS3_EE11_Alloc_nodeC1ERS9_
	lea	rdx, -8[rbp]
	mov	rax, QWORD PTR 24[rbp]
	mov	r8, rdx
	mov	rdx, rax
	mov	rcx, QWORD PTR 16[rbp]
	call	_ZNSt8_Rb_treeIPvSt4pairIKS0_yESt10_Select1stIS3_ESt4lessIS0_ESaIS3_EE7_M_copyINS9_11_Alloc_nodeEEEPSt13_Rb_tree_nodeIS3_ERKS9_RT_
	add	rsp, 48
	pop	rbp
	ret
	.seh_endproc
	.section	.text$_ZNSt8_Rb_treeIPvSt4pairIKS0_yESt10_Select1stIS3_ESt4lessIS0_ESaIS3_EE8_M_eraseEPSt13_Rb_tree_nodeIS3_E,"x"
	.linkonce discard
	.align 2
	.globl	_ZNSt8_Rb_treeIPvSt4pairIKS0_yESt10_Select1stIS3_ESt4lessIS0_ESaIS3_EE8_M_eraseEPSt13_Rb_tree_nodeIS3_E
	.def	_ZNSt8_Rb_treeIPvSt4pairIKS0_yESt10_Select1stIS3_ESt4lessIS0_ESaIS3_EE8_M_eraseEPSt13_Rb_tree_nodeIS3_E;	.scl	2;	.type	32;	.endef
	.seh_proc	_ZNSt8_Rb_treeIPvSt4pairIKS0_yESt10_Select1stIS3_ESt4lessIS0_ESaIS3_EE8_M_eraseEPSt13_Rb_tree_nodeIS3_E
_ZNSt8_Rb_treeIPvSt4pairIKS0_yESt10_Select1stIS3_ESt4lessIS0_ESaIS3_EE8_M_eraseEPSt13_Rb_tree_nodeIS3_E:
.LFB9061:
	push	rbp
	.seh_pushreg	rbp
	mov	rbp, rsp
	.seh_setframe	rbp, 0
	sub	rsp, 48
	.seh_stackalloc	48
	.seh_endprologue
	mov	QWORD PTR 16[rbp], rcx
	mov	QWORD PTR 24[rbp], rdx
.L440:
	cmp	QWORD PTR 24[rbp], 0
	je	.L441
	mov	rax, QWORD PTR 24[rbp]
	mov	rcx, rax
	call	_ZNSt8_Rb_treeIPvSt4pairIKS0_yESt10_Select1stIS3_ESt4lessIS0_ESaIS3_EE8_S_rightEPSt18_Rb_tree_node_base
	mov	rdx, rax
	mov	rcx, QWORD PTR 16[rbp]
	call	_ZNSt8_Rb_treeIPvSt4pairIKS0_yESt10_Select1stIS3_ESt4lessIS0_ESaIS3_EE8_M_eraseEPSt13_Rb_tree_nodeIS3_E
	mov	rax, QWORD PTR 24[rbp]
	mov	rcx, rax
	call	_ZNSt8_Rb_treeIPvSt4pairIKS0_yESt10_Select1stIS3_ESt4lessIS0_ESaIS3_EE7_S_leftEPSt18_Rb_tree_node_base
	mov	QWORD PTR -8[rbp], rax
	mov	rax, QWORD PTR 24[rbp]
	mov	rdx, rax
	mov	rcx, QWORD PTR 16[rbp]
	call	_ZNSt8_Rb_treeIPvSt4pairIKS0_yESt10_Select1stIS3_ESt4lessIS0_ESaIS3_EE12_M_drop_nodeEPSt13_Rb_tree_nodeIS3_E
	mov	rax, QWORD PTR -8[rbp]
	mov	QWORD PTR 24[rbp], rax
	jmp	.L440
.L441:
	nop
	add	rsp, 48
	pop	rbp
	ret
	.seh_endproc
	.section	.text$_ZNSt8_Rb_treeIPvSt4pairIKS0_yESt10_Select1stIS3_ESt4lessIS0_ESaIS3_EE8_M_beginEv,"x"
	.linkonce discard
	.align 2
	.globl	_ZNSt8_Rb_treeIPvSt4pairIKS0_yESt10_Select1stIS3_ESt4lessIS0_ESaIS3_EE8_M_beginEv
	.def	_ZNSt8_Rb_treeIPvSt4pairIKS0_yESt10_Select1stIS3_ESt4lessIS0_ESaIS3_EE8_M_beginEv;	.scl	2;	.type	32;	.endef
	.seh_proc	_ZNSt8_Rb_treeIPvSt4pairIKS0_yESt10_Select1stIS3_ESt4lessIS0_ESaIS3_EE8_M_beginEv
_ZNSt8_Rb_treeIPvSt4pairIKS0_yESt10_Select1stIS3_ESt4lessIS0_ESaIS3_EE8_M_beginEv:
.LFB9062:
	push	rbp
	.seh_pushreg	rbp
	mov	rbp, rsp
	.seh_setframe	rbp, 0
	.seh_endprologue
	mov	QWORD PTR 16[rbp], rcx
	mov	rax, QWORD PTR 16[rbp]
	mov	rax, QWORD PTR 16[rax]
	pop	rbp
	ret
	.seh_endproc
	.section	.text$_ZNSt8_Rb_treeIPvSt4pairIKS0_yESt10_Select1stIS3_ESt4lessIS0_ESaIS3_EE5beginEv,"x"
	.linkonce discard
	.align 2
	.globl	_ZNSt8_Rb_treeIPvSt4pairIKS0_yESt10_Select1stIS3_ESt4lessIS0_ESaIS3_EE5beginEv
	.def	_ZNSt8_Rb_treeIPvSt4pairIKS0_yESt10_Select1stIS3_ESt4lessIS0_ESaIS3_EE5beginEv;	.scl	2;	.type	32;	.endef
	.seh_proc	_ZNSt8_Rb_treeIPvSt4pairIKS0_yESt10_Select1stIS3_ESt4lessIS0_ESaIS3_EE5beginEv
_ZNSt8_Rb_treeIPvSt4pairIKS0_yESt10_Select1stIS3_ESt4lessIS0_ESaIS3_EE5beginEv:
.LFB9063:
	push	rbp
	.seh_pushreg	rbp
	mov	rbp, rsp
	.seh_setframe	rbp, 0
	sub	rsp, 48
	.seh_stackalloc	48
	.seh_endprologue
	mov	QWORD PTR 16[rbp], rcx
	mov	rax, QWORD PTR 16[rbp]
	mov	rdx, QWORD PTR 24[rax]
	lea	rax, -8[rbp]
	mov	rcx, rax
	call	_ZNSt17_Rb_tree_iteratorISt4pairIKPvyEEC1EPSt18_Rb_tree_node_base
	mov	rax, QWORD PTR -8[rbp]
	add	rsp, 48
	pop	rbp
	ret
	.seh_endproc
	.section	.text$_ZNSt8_Rb_treeIPvSt4pairIKS0_yESt10_Select1stIS3_ESt4lessIS0_ESaIS3_EE3endEv,"x"
	.linkonce discard
	.align 2
	.globl	_ZNSt8_Rb_treeIPvSt4pairIKS0_yESt10_Select1stIS3_ESt4lessIS0_ESaIS3_EE3endEv
	.def	_ZNSt8_Rb_treeIPvSt4pairIKS0_yESt10_Select1stIS3_ESt4lessIS0_ESaIS3_EE3endEv;	.scl	2;	.type	32;	.endef
	.seh_proc	_ZNSt8_Rb_treeIPvSt4pairIKS0_yESt10_Select1stIS3_ESt4lessIS0_ESaIS3_EE3endEv
_ZNSt8_Rb_treeIPvSt4pairIKS0_yESt10_Select1stIS3_ESt4lessIS0_ESaIS3_EE3endEv:
.LFB9064:
	push	rbp
	.seh_pushreg	rbp
	mov	rbp, rsp
	.seh_setframe	rbp, 0
	sub	rsp, 48
	.seh_stackalloc	48
	.seh_endprologue
	mov	QWORD PTR 16[rbp], rcx
	mov	rax, QWORD PTR 16[rbp]
	lea	rdx, 8[rax]
	lea	rax, -8[rbp]
	mov	rcx, rax
	call	_ZNSt17_Rb_tree_iteratorISt4pairIKPvyEEC1EPSt18_Rb_tree_node_base
	mov	rax, QWORD PTR -8[rbp]
	add	rsp, 48
	pop	rbp
	ret
	.seh_endproc
	.section	.text$_ZNSt13_Rb_tree_nodeISt4pairIKPvyEE9_M_valptrEv,"x"
	.linkonce discard
	.align 2
	.globl	_ZNSt13_Rb_tree_nodeISt4pairIKPvyEE9_M_valptrEv
	.def	_ZNSt13_Rb_tree_nodeISt4pairIKPvyEE9_M_valptrEv;	.scl	2;	.type	32;	.endef
	.seh_proc	_ZNSt13_Rb_tree_nodeISt4pairIKPvyEE9_M_valptrEv
_ZNSt13_Rb_tree_nodeISt4pairIKPvyEE9_M_valptrEv:
.LFB9065:
	push	rbp
	.seh_pushreg	rbp
	mov	rbp, rsp
	.seh_setframe	rbp, 0
	sub	rsp, 32
	.seh_stackalloc	32
	.seh_endprologue
	mov	QWORD PTR 16[rbp], rcx
	mov	rax, QWORD PTR 16[rbp]
	add	rax, 32
	mov	rcx, rax
	call	_ZN9__gnu_cxx16__aligned_membufISt4pairIKPvyEE6_M_ptrEv
	add	rsp, 32
	pop	rbp
	ret
	.seh_endproc
	.section	.text$_ZNSt8_Rb_treeIPvSt4pairIKS0_yESt10_Select1stIS3_ESt4lessIS0_ESaIS3_EE5eraseERS2_,"x"
	.linkonce discard
	.align 2
	.globl	_ZNSt8_Rb_treeIPvSt4pairIKS0_yESt10_Select1stIS3_ESt4lessIS0_ESaIS3_EE5eraseERS2_
	.def	_ZNSt8_Rb_treeIPvSt4pairIKS0_yESt10_Select1stIS3_ESt4lessIS0_ESaIS3_EE5eraseERS2_;	.scl	2;	.type	32;	.endef
	.seh_proc	_ZNSt8_Rb_treeIPvSt4pairIKS0_yESt10_Select1stIS3_ESt4lessIS0_ESaIS3_EE5eraseERS2_
_ZNSt8_Rb_treeIPvSt4pairIKS0_yESt10_Select1stIS3_ESt4lessIS0_ESaIS3_EE5eraseERS2_:
.LFB9066:
	push	rbp
	.seh_pushreg	rbp
	mov	rbp, rsp
	.seh_setframe	rbp, 0
	sub	rsp, 80
	.seh_stackalloc	80
	.seh_endprologue
	mov	QWORD PTR 16[rbp], rcx
	mov	QWORD PTR 24[rbp], rdx
	lea	rax, -48[rbp]
	mov	rdx, QWORD PTR 24[rbp]
	mov	r8, rdx
	mov	rdx, QWORD PTR 16[rbp]
	mov	rcx, rax
	call	_ZNSt8_Rb_treeIPvSt4pairIKS0_yESt10_Select1stIS3_ESt4lessIS0_ESaIS3_EE11equal_rangeERS2_
	mov	rcx, QWORD PTR 16[rbp]
	call	_ZNKSt8_Rb_treeIPvSt4pairIKS0_yESt10_Select1stIS3_ESt4lessIS0_ESaIS3_EE4sizeEv
	mov	QWORD PTR -8[rbp], rax
	lea	rax, -48[rbp]
	lea	rdx, 8[rax]
	lea	rax, -24[rbp]
	mov	rcx, rax
	call	_ZNSt23_Rb_tree_const_iteratorISt4pairIKPvyEEC1ERKSt17_Rb_tree_iteratorIS3_E
	lea	rdx, -48[rbp]
	lea	rax, -16[rbp]
	mov	rcx, rax
	call	_ZNSt23_Rb_tree_const_iteratorISt4pairIKPvyEEC1ERKSt17_Rb_tree_iteratorIS3_E
	mov	rdx, QWORD PTR -24[rbp]
	mov	rax, QWORD PTR -16[rbp]
	mov	r8, rdx
	mov	rdx, rax
	mov	rcx, QWORD PTR 16[rbp]
	call	_ZNSt8_Rb_treeIPvSt4pairIKS0_yESt10_Select1stIS3_ESt4lessIS0_ESaIS3_EE12_M_erase_auxESt23_Rb_tree_const_iteratorIS3_ESB_
	mov	rcx, QWORD PTR 16[rbp]
	call	_ZNKSt8_Rb_treeIPvSt4pairIKS0_yESt10_Select1stIS3_ESt4lessIS0_ESaIS3_EE4sizeEv
	mov	rdx, rax
	mov	rax, QWORD PTR -8[rbp]
	sub	rax, rdx
	add	rsp, 80
	pop	rbp
	ret
	.seh_endproc
	.section	.text$_ZN9__gnu_cxx14__alloc_traitsISaIPN3ULR4TypeEES3_E17_S_select_on_copyERKS4_,"x"
	.linkonce discard
	.globl	_ZN9__gnu_cxx14__alloc_traitsISaIPN3ULR4TypeEES3_E17_S_select_on_copyERKS4_
	.def	_ZN9__gnu_cxx14__alloc_traitsISaIPN3ULR4TypeEES3_E17_S_select_on_copyERKS4_;	.scl	2;	.type	32;	.endef
	.seh_proc	_ZN9__gnu_cxx14__alloc_traitsISaIPN3ULR4TypeEES3_E17_S_select_on_copyERKS4_
_ZN9__gnu_cxx14__alloc_traitsISaIPN3ULR4TypeEES3_E17_S_select_on_copyERKS4_:
.LFB9071:
	push	rbp
	.seh_pushreg	rbp
	mov	rbp, rsp
	.seh_setframe	rbp, 0
	sub	rsp, 32
	.seh_stackalloc	32
	.seh_endprologue
	mov	QWORD PTR 16[rbp], rcx
	mov	QWORD PTR 24[rbp], rdx
	mov	rax, QWORD PTR 16[rbp]
	mov	rdx, QWORD PTR 24[rbp]
	mov	rcx, rax
	call	_ZNSt16allocator_traitsISaIPN3ULR4TypeEEE37select_on_container_copy_constructionERKS3_
	mov	rax, QWORD PTR 16[rbp]
	add	rsp, 32
	pop	rbp
	ret
	.seh_endproc
	.section	.text$_ZNKSt12_Vector_baseIPN3ULR4TypeESaIS2_EE19_M_get_Tp_allocatorEv,"x"
	.linkonce discard
	.align 2
	.globl	_ZNKSt12_Vector_baseIPN3ULR4TypeESaIS2_EE19_M_get_Tp_allocatorEv
	.def	_ZNKSt12_Vector_baseIPN3ULR4TypeESaIS2_EE19_M_get_Tp_allocatorEv;	.scl	2;	.type	32;	.endef
	.seh_proc	_ZNKSt12_Vector_baseIPN3ULR4TypeESaIS2_EE19_M_get_Tp_allocatorEv
_ZNKSt12_Vector_baseIPN3ULR4TypeESaIS2_EE19_M_get_Tp_allocatorEv:
.LFB9072:
	push	rbp
	.seh_pushreg	rbp
	mov	rbp, rsp
	.seh_setframe	rbp, 0
	.seh_endprologue
	mov	QWORD PTR 16[rbp], rcx
	mov	rax, QWORD PTR 16[rbp]
	pop	rbp
	ret
	.seh_endproc
	.section	.text$_ZNSaIPN3ULR4TypeEED2Ev,"x"
	.linkonce discard
	.align 2
	.globl	_ZNSaIPN3ULR4TypeEED2Ev
	.def	_ZNSaIPN3ULR4TypeEED2Ev;	.scl	2;	.type	32;	.endef
	.seh_proc	_ZNSaIPN3ULR4TypeEED2Ev
_ZNSaIPN3ULR4TypeEED2Ev:
.LFB9074:
	push	rbp
	.seh_pushreg	rbp
	mov	rbp, rsp
	.seh_setframe	rbp, 0
	sub	rsp, 32
	.seh_stackalloc	32
	.seh_endprologue
	mov	QWORD PTR 16[rbp], rcx
	mov	rcx, QWORD PTR 16[rbp]
	call	_ZN9__gnu_cxx13new_allocatorIPN3ULR4TypeEED2Ev
	nop
	add	rsp, 32
	pop	rbp
	ret
	.seh_endproc
	.section	.text$_ZNSaIPN3ULR4TypeEED1Ev,"x"
	.linkonce discard
	.align 2
	.globl	_ZNSaIPN3ULR4TypeEED1Ev
	.def	_ZNSaIPN3ULR4TypeEED1Ev;	.scl	2;	.type	32;	.endef
	.seh_proc	_ZNSaIPN3ULR4TypeEED1Ev
_ZNSaIPN3ULR4TypeEED1Ev:
.LFB9075:
	push	rbp
	.seh_pushreg	rbp
	mov	rbp, rsp
	.seh_setframe	rbp, 0
	sub	rsp, 32
	.seh_stackalloc	32
	.seh_endprologue
	mov	QWORD PTR 16[rbp], rcx
	mov	rcx, QWORD PTR 16[rbp]
	call	_ZN9__gnu_cxx13new_allocatorIPN3ULR4TypeEED2Ev
	nop
	add	rsp, 32
	pop	rbp
	ret
	.seh_endproc
	.section	.text$_ZNSt12_Vector_baseIPN3ULR4TypeESaIS2_EE12_Vector_implD1Ev,"x"
	.linkonce discard
	.align 2
	.globl	_ZNSt12_Vector_baseIPN3ULR4TypeESaIS2_EE12_Vector_implD1Ev
	.def	_ZNSt12_Vector_baseIPN3ULR4TypeESaIS2_EE12_Vector_implD1Ev;	.scl	2;	.type	32;	.endef
	.seh_proc	_ZNSt12_Vector_baseIPN3ULR4TypeESaIS2_EE12_Vector_implD1Ev
_ZNSt12_Vector_baseIPN3ULR4TypeESaIS2_EE12_Vector_implD1Ev:
.LFB9079:
	push	rbp
	.seh_pushreg	rbp
	mov	rbp, rsp
	.seh_setframe	rbp, 0
	sub	rsp, 32
	.seh_stackalloc	32
	.seh_endprologue
	mov	QWORD PTR 16[rbp], rcx
	mov	rcx, QWORD PTR 16[rbp]
	call	_ZNSaIPN3ULR4TypeEED2Ev
	nop
	add	rsp, 32
	pop	rbp
	ret
	.seh_endproc
	.section	.text$_ZNSt12_Vector_baseIPN3ULR4TypeESaIS2_EEC2EyRKS3_,"x"
	.linkonce discard
	.align 2
	.globl	_ZNSt12_Vector_baseIPN3ULR4TypeESaIS2_EEC2EyRKS3_
	.def	_ZNSt12_Vector_baseIPN3ULR4TypeESaIS2_EEC2EyRKS3_;	.scl	2;	.type	32;	.endef
	.seh_proc	_ZNSt12_Vector_baseIPN3ULR4TypeESaIS2_EEC2EyRKS3_
_ZNSt12_Vector_baseIPN3ULR4TypeESaIS2_EEC2EyRKS3_:
.LFB9080:
	push	rbp
	.seh_pushreg	rbp
	push	rbx
	.seh_pushreg	rbx
	sub	rsp, 40
	.seh_stackalloc	40
	lea	rbp, 128[rsp]
	.seh_setframe	rbp, 128
	.seh_endprologue
	mov	QWORD PTR -64[rbp], rcx
	mov	QWORD PTR -56[rbp], rdx
	mov	QWORD PTR -48[rbp], r8
	mov	rax, QWORD PTR -64[rbp]
	mov	rdx, QWORD PTR -48[rbp]
	mov	rcx, rax
	call	_ZNSt12_Vector_baseIPN3ULR4TypeESaIS2_EE12_Vector_implC1ERKS3_
	mov	rax, QWORD PTR -56[rbp]
	mov	rdx, rax
	mov	rcx, QWORD PTR -64[rbp]
.LEHB56:
	call	_ZNSt12_Vector_baseIPN3ULR4TypeESaIS2_EE17_M_create_storageEy
.LEHE56:
	jmp	.L462
.L461:
	mov	rbx, rax
	mov	rax, QWORD PTR -64[rbp]
	mov	rcx, rax
	call	_ZNSt12_Vector_baseIPN3ULR4TypeESaIS2_EE12_Vector_implD1Ev
	mov	rax, rbx
	mov	rcx, rax
.LEHB57:
	call	_Unwind_Resume
	nop
.LEHE57:
.L462:
	add	rsp, 40
	pop	rbx
	pop	rbp
	ret
	.seh_handler	__gxx_personality_seh0, @unwind, @except
	.seh_handlerdata
.LLSDA9080:
	.byte	0xff
	.byte	0xff
	.byte	0x1
	.uleb128 .LLSDACSE9080-.LLSDACSB9080
.LLSDACSB9080:
	.uleb128 .LEHB56-.LFB9080
	.uleb128 .LEHE56-.LEHB56
	.uleb128 .L461-.LFB9080
	.uleb128 0
	.uleb128 .LEHB57-.LFB9080
	.uleb128 .LEHE57-.LEHB57
	.uleb128 0
	.uleb128 0
.LLSDACSE9080:
	.section	.text$_ZNSt12_Vector_baseIPN3ULR4TypeESaIS2_EEC2EyRKS3_,"x"
	.linkonce discard
	.seh_endproc
	.section	.text$_ZNSt12_Vector_baseIPN3ULR4TypeESaIS2_EED2Ev,"x"
	.linkonce discard
	.align 2
	.globl	_ZNSt12_Vector_baseIPN3ULR4TypeESaIS2_EED2Ev
	.def	_ZNSt12_Vector_baseIPN3ULR4TypeESaIS2_EED2Ev;	.scl	2;	.type	32;	.endef
	.seh_proc	_ZNSt12_Vector_baseIPN3ULR4TypeESaIS2_EED2Ev
_ZNSt12_Vector_baseIPN3ULR4TypeESaIS2_EED2Ev:
.LFB9083:
	push	rbp
	.seh_pushreg	rbp
	mov	rbp, rsp
	.seh_setframe	rbp, 0
	sub	rsp, 32
	.seh_stackalloc	32
	.seh_endprologue
	mov	QWORD PTR 16[rbp], rcx
	mov	rax, QWORD PTR 16[rbp]
	mov	rdx, QWORD PTR 16[rax]
	mov	rax, QWORD PTR 16[rbp]
	mov	rax, QWORD PTR [rax]
	sub	rdx, rax
	mov	rax, rdx
	sar	rax, 3
	mov	rdx, rax
	mov	rax, QWORD PTR 16[rbp]
	mov	rax, QWORD PTR [rax]
	mov	r8, rdx
	mov	rdx, rax
	mov	rcx, QWORD PTR 16[rbp]
	call	_ZNSt12_Vector_baseIPN3ULR4TypeESaIS2_EE13_M_deallocateEPS2_y
	mov	rax, QWORD PTR 16[rbp]
	mov	rcx, rax
	call	_ZNSt12_Vector_baseIPN3ULR4TypeESaIS2_EE12_Vector_implD1Ev
	nop
	add	rsp, 32
	pop	rbp
	ret
	.seh_handler	__gxx_personality_seh0, @unwind, @except
	.seh_handlerdata
.LLSDA9083:
	.byte	0xff
	.byte	0xff
	.byte	0x1
	.uleb128 .LLSDACSE9083-.LLSDACSB9083
.LLSDACSB9083:
.LLSDACSE9083:
	.section	.text$_ZNSt12_Vector_baseIPN3ULR4TypeESaIS2_EED2Ev,"x"
	.linkonce discard
	.seh_endproc
	.section	.text$_ZNSt12_Vector_baseIPN3ULR4TypeESaIS2_EE19_M_get_Tp_allocatorEv,"x"
	.linkonce discard
	.align 2
	.globl	_ZNSt12_Vector_baseIPN3ULR4TypeESaIS2_EE19_M_get_Tp_allocatorEv
	.def	_ZNSt12_Vector_baseIPN3ULR4TypeESaIS2_EE19_M_get_Tp_allocatorEv;	.scl	2;	.type	32;	.endef
	.seh_proc	_ZNSt12_Vector_baseIPN3ULR4TypeESaIS2_EE19_M_get_Tp_allocatorEv
_ZNSt12_Vector_baseIPN3ULR4TypeESaIS2_EE19_M_get_Tp_allocatorEv:
.LFB9085:
	push	rbp
	.seh_pushreg	rbp
	mov	rbp, rsp
	.seh_setframe	rbp, 0
	.seh_endprologue
	mov	QWORD PTR 16[rbp], rcx
	mov	rax, QWORD PTR 16[rbp]
	pop	rbp
	ret
	.seh_endproc
	.section	.text$_ZSt22__uninitialized_copy_aIN9__gnu_cxx17__normal_iteratorIPKPN3ULR4TypeESt6vectorIS4_SaIS4_EEEEPS4_S4_ET0_T_SD_SC_RSaIT1_E,"x"
	.linkonce discard
	.globl	_ZSt22__uninitialized_copy_aIN9__gnu_cxx17__normal_iteratorIPKPN3ULR4TypeESt6vectorIS4_SaIS4_EEEEPS4_S4_ET0_T_SD_SC_RSaIT1_E
	.def	_ZSt22__uninitialized_copy_aIN9__gnu_cxx17__normal_iteratorIPKPN3ULR4TypeESt6vectorIS4_SaIS4_EEEEPS4_S4_ET0_T_SD_SC_RSaIT1_E;	.scl	2;	.type	32;	.endef
	.seh_proc	_ZSt22__uninitialized_copy_aIN9__gnu_cxx17__normal_iteratorIPKPN3ULR4TypeESt6vectorIS4_SaIS4_EEEEPS4_S4_ET0_T_SD_SC_RSaIT1_E
_ZSt22__uninitialized_copy_aIN9__gnu_cxx17__normal_iteratorIPKPN3ULR4TypeESt6vectorIS4_SaIS4_EEEEPS4_S4_ET0_T_SD_SC_RSaIT1_E:
.LFB9086:
	push	rbp
	.seh_pushreg	rbp
	mov	rbp, rsp
	.seh_setframe	rbp, 0
	sub	rsp, 32
	.seh_stackalloc	32
	.seh_endprologue
	mov	QWORD PTR 16[rbp], rcx
	mov	QWORD PTR 24[rbp], rdx
	mov	QWORD PTR 32[rbp], r8
	mov	QWORD PTR 40[rbp], r9
	mov	rdx, QWORD PTR 32[rbp]
	mov	rax, QWORD PTR 24[rbp]
	mov	r8, rdx
	mov	rdx, rax
	mov	rcx, QWORD PTR 16[rbp]
	call	_ZSt18uninitialized_copyIN9__gnu_cxx17__normal_iteratorIPKPN3ULR4TypeESt6vectorIS4_SaIS4_EEEEPS4_ET0_T_SD_SC_
	add	rsp, 32
	pop	rbp
	ret
	.seh_endproc
	.section	.text$_ZSt8_DestroyIPPN3ULR4TypeES2_EvT_S4_RSaIT0_E,"x"
	.linkonce discard
	.globl	_ZSt8_DestroyIPPN3ULR4TypeES2_EvT_S4_RSaIT0_E
	.def	_ZSt8_DestroyIPPN3ULR4TypeES2_EvT_S4_RSaIT0_E;	.scl	2;	.type	32;	.endef
	.seh_proc	_ZSt8_DestroyIPPN3ULR4TypeES2_EvT_S4_RSaIT0_E
_ZSt8_DestroyIPPN3ULR4TypeES2_EvT_S4_RSaIT0_E:
.LFB9087:
	push	rbp
	.seh_pushreg	rbp
	mov	rbp, rsp
	.seh_setframe	rbp, 0
	sub	rsp, 32
	.seh_stackalloc	32
	.seh_endprologue
	mov	QWORD PTR 16[rbp], rcx
	mov	QWORD PTR 24[rbp], rdx
	mov	QWORD PTR 32[rbp], r8
	mov	rax, QWORD PTR 24[rbp]
	mov	rdx, rax
	mov	rcx, QWORD PTR 16[rbp]
	call	_ZSt8_DestroyIPPN3ULR4TypeEEvT_S4_
	nop
	add	rsp, 32
	pop	rbp
	ret
	.seh_endproc
	.section	.text$_ZN9__gnu_cxx17__normal_iteratorIPPvSt6vectorIS1_SaIS1_EEEC1ERKS2_,"x"
	.linkonce discard
	.align 2
	.globl	_ZN9__gnu_cxx17__normal_iteratorIPPvSt6vectorIS1_SaIS1_EEEC1ERKS2_
	.def	_ZN9__gnu_cxx17__normal_iteratorIPPvSt6vectorIS1_SaIS1_EEEC1ERKS2_;	.scl	2;	.type	32;	.endef
	.seh_proc	_ZN9__gnu_cxx17__normal_iteratorIPPvSt6vectorIS1_SaIS1_EEEC1ERKS2_
_ZN9__gnu_cxx17__normal_iteratorIPPvSt6vectorIS1_SaIS1_EEEC1ERKS2_:
.LFB9090:
	push	rbp
	.seh_pushreg	rbp
	mov	rbp, rsp
	.seh_setframe	rbp, 0
	.seh_endprologue
	mov	QWORD PTR 16[rbp], rcx
	mov	QWORD PTR 24[rbp], rdx
	mov	rax, QWORD PTR 24[rbp]
	mov	rdx, QWORD PTR [rax]
	mov	rax, QWORD PTR 16[rbp]
	mov	QWORD PTR [rax], rdx
	nop
	pop	rbp
	ret
	.seh_endproc
	.section	.text$_ZNK9__gnu_cxx17__normal_iteratorIPPvSt6vectorIS1_SaIS1_EEE4baseEv,"x"
	.linkonce discard
	.align 2
	.globl	_ZNK9__gnu_cxx17__normal_iteratorIPPvSt6vectorIS1_SaIS1_EEE4baseEv
	.def	_ZNK9__gnu_cxx17__normal_iteratorIPPvSt6vectorIS1_SaIS1_EEE4baseEv;	.scl	2;	.type	32;	.endef
	.seh_proc	_ZNK9__gnu_cxx17__normal_iteratorIPPvSt6vectorIS1_SaIS1_EEE4baseEv
_ZNK9__gnu_cxx17__normal_iteratorIPPvSt6vectorIS1_SaIS1_EEE4baseEv:
.LFB9091:
	push	rbp
	.seh_pushreg	rbp
	mov	rbp, rsp
	.seh_setframe	rbp, 0
	.seh_endprologue
	mov	QWORD PTR 16[rbp], rcx
	mov	rax, QWORD PTR 16[rbp]
	pop	rbp
	ret
	.seh_endproc
	.section	.text$_ZNSt6vectorIPvSaIS0_EE14_M_emplace_auxIJRS0_EEEN9__gnu_cxx17__normal_iteratorIPS0_S2_EENS6_IPKS0_S2_EEDpOT_,"x"
	.linkonce discard
	.align 2
	.globl	_ZNSt6vectorIPvSaIS0_EE14_M_emplace_auxIJRS0_EEEN9__gnu_cxx17__normal_iteratorIPS0_S2_EENS6_IPKS0_S2_EEDpOT_
	.def	_ZNSt6vectorIPvSaIS0_EE14_M_emplace_auxIJRS0_EEEN9__gnu_cxx17__normal_iteratorIPS0_S2_EENS6_IPKS0_S2_EEDpOT_;	.scl	2;	.type	32;	.endef
	.seh_proc	_ZNSt6vectorIPvSaIS0_EE14_M_emplace_auxIJRS0_EEEN9__gnu_cxx17__normal_iteratorIPS0_S2_EENS6_IPKS0_S2_EEDpOT_
_ZNSt6vectorIPvSaIS0_EE14_M_emplace_auxIJRS0_EEEN9__gnu_cxx17__normal_iteratorIPS0_S2_EENS6_IPKS0_S2_EEDpOT_:
.LFB9092:
	push	rbp
	.seh_pushreg	rbp
	push	rbx
	.seh_pushreg	rbx
	sub	rsp, 120
	.seh_stackalloc	120
	lea	rbp, 128[rsp]
	.seh_setframe	rbp, 128
	.seh_endprologue
	mov	QWORD PTR 16[rbp], rcx
	mov	QWORD PTR 24[rbp], rdx
	mov	QWORD PTR 32[rbp], r8
	mov	rcx, QWORD PTR 16[rbp]
	call	_ZNKSt6vectorIPvSaIS0_EE6cbeginEv
	mov	QWORD PTR -72[rbp], rax
	lea	rdx, -72[rbp]
	lea	rax, 24[rbp]
	mov	rcx, rax
	call	_ZN9__gnu_cxxmiIPKPvSt6vectorIS1_SaIS1_EEEENS_17__normal_iteratorIT_T0_E15difference_typeERKSA_SD_
	mov	QWORD PTR -24[rbp], rax
	mov	rax, QWORD PTR 16[rbp]
	mov	rdx, QWORD PTR 8[rax]
	mov	rax, QWORD PTR 16[rbp]
	mov	rax, QWORD PTR 16[rax]
	cmp	rdx, rax
	je	.L473
	mov	rcx, QWORD PTR 16[rbp]
	call	_ZNKSt6vectorIPvSaIS0_EE4cendEv
	mov	QWORD PTR -64[rbp], rax
	lea	rdx, -64[rbp]
	lea	rax, 24[rbp]
	mov	rcx, rax
	call	_ZN9__gnu_cxxeqIPKPvSt6vectorIS1_SaIS1_EEEEbRKNS_17__normal_iteratorIT_T0_EESC_
	test	al, al
	je	.L474
	mov	rax, QWORD PTR 32[rbp]
	mov	rcx, rax
	call	_ZSt7forwardIRPvEOT_RNSt16remove_referenceIS2_E4typeE
	mov	rcx, rax
	mov	rax, QWORD PTR 16[rbp]
	mov	rdx, QWORD PTR 8[rax]
	mov	rax, QWORD PTR 16[rbp]
	mov	r8, rcx
	mov	rcx, rax
.LEHB58:
	call	_ZNSt16allocator_traitsISaIPvEE9constructIS0_JRS0_EEEvRS1_PT_DpOT0_
	mov	rax, QWORD PTR 16[rbp]
	mov	rax, QWORD PTR 8[rax]
	lea	rdx, 8[rax]
	mov	rax, QWORD PTR 16[rbp]
	mov	QWORD PTR 8[rax], rdx
	jmp	.L476
.L474:
	mov	rax, QWORD PTR 32[rbp]
	mov	rcx, rax
	call	_ZSt7forwardIRPvEOT_RNSt16remove_referenceIS2_E4typeE
	mov	rdx, rax
	lea	rax, -96[rbp]
	mov	r8, rdx
	mov	rdx, QWORD PTR 16[rbp]
	mov	rcx, rax
	call	_ZNSt6vectorIPvSaIS0_EE16_Temporary_valueC1IJRS0_EEEPS2_DpOT_
.LEHE58:
	lea	rax, -96[rbp]
	mov	rcx, rax
	call	_ZNSt6vectorIPvSaIS0_EE16_Temporary_value6_M_valEv
	mov	rcx, rax
	call	_ZSt4moveIRPvEONSt16remove_referenceIT_E4typeEOS3_
	mov	rbx, rax
	mov	rcx, QWORD PTR 16[rbp]
	call	_ZNSt6vectorIPvSaIS0_EE5beginEv
	mov	QWORD PTR -56[rbp], rax
	mov	rdx, QWORD PTR -24[rbp]
	lea	rax, -56[rbp]
	mov	rcx, rax
	call	_ZNK9__gnu_cxx17__normal_iteratorIPPvSt6vectorIS1_SaIS1_EEEplEx
	mov	r8, rbx
	mov	rdx, rax
	mov	rcx, QWORD PTR 16[rbp]
.LEHB59:
	call	_ZNSt6vectorIPvSaIS0_EE13_M_insert_auxIS0_EEvN9__gnu_cxx17__normal_iteratorIPS0_S2_EEOT_
.LEHE59:
	lea	rax, -96[rbp]
	mov	rcx, rax
	call	_ZNSt6vectorIPvSaIS0_EE16_Temporary_valueD1Ev
	jmp	.L476
.L473:
	mov	rax, QWORD PTR 32[rbp]
	mov	rcx, rax
	call	_ZSt7forwardIRPvEOT_RNSt16remove_referenceIS2_E4typeE
	mov	rbx, rax
	mov	rcx, QWORD PTR 16[rbp]
	call	_ZNSt6vectorIPvSaIS0_EE5beginEv
	mov	QWORD PTR -48[rbp], rax
	mov	rdx, QWORD PTR -24[rbp]
	lea	rax, -48[rbp]
	mov	rcx, rax
	call	_ZNK9__gnu_cxx17__normal_iteratorIPPvSt6vectorIS1_SaIS1_EEEplEx
	mov	r8, rbx
	mov	rdx, rax
	mov	rcx, QWORD PTR 16[rbp]
.LEHB60:
	call	_ZNSt6vectorIPvSaIS0_EE17_M_realloc_insertIJRS0_EEEvN9__gnu_cxx17__normal_iteratorIPS0_S2_EEDpOT_
.L476:
	mov	rax, QWORD PTR 16[rbp]
	mov	rdx, QWORD PTR [rax]
	mov	rax, QWORD PTR -24[rbp]
	sal	rax, 3
	add	rax, rdx
	mov	QWORD PTR -32[rbp], rax
	lea	rdx, -32[rbp]
	lea	rax, -40[rbp]
	mov	rcx, rax
	call	_ZN9__gnu_cxx17__normal_iteratorIPPvSt6vectorIS1_SaIS1_EEEC1ERKS2_
	mov	rax, QWORD PTR -40[rbp]
	jmp	.L480
.L479:
	mov	rbx, rax
	lea	rax, -96[rbp]
	mov	rcx, rax
	call	_ZNSt6vectorIPvSaIS0_EE16_Temporary_valueD1Ev
	mov	rax, rbx
	mov	rcx, rax
	call	_Unwind_Resume
.LEHE60:
.L480:
	add	rsp, 120
	pop	rbx
	pop	rbp
	ret
	.seh_handler	__gxx_personality_seh0, @unwind, @except
	.seh_handlerdata
.LLSDA9092:
	.byte	0xff
	.byte	0xff
	.byte	0x1
	.uleb128 .LLSDACSE9092-.LLSDACSB9092
.LLSDACSB9092:
	.uleb128 .LEHB58-.LFB9092
	.uleb128 .LEHE58-.LEHB58
	.uleb128 0
	.uleb128 0
	.uleb128 .LEHB59-.LFB9092
	.uleb128 .LEHE59-.LEHB59
	.uleb128 .L479-.LFB9092
	.uleb128 0
	.uleb128 .LEHB60-.LFB9092
	.uleb128 .LEHE60-.LEHB60
	.uleb128 0
	.uleb128 0
.LLSDACSE9092:
	.section	.text$_ZNSt6vectorIPvSaIS0_EE14_M_emplace_auxIJRS0_EEEN9__gnu_cxx17__normal_iteratorIPS0_S2_EENS6_IPKS0_S2_EEDpOT_,"x"
	.linkonce discard
	.seh_endproc
	.section	.text$_ZN9__gnu_cxx17__normal_iteratorIPPN3ULR4TypeESt6vectorIS3_SaIS3_EEEC1ERKS4_,"x"
	.linkonce discard
	.align 2
	.globl	_ZN9__gnu_cxx17__normal_iteratorIPPN3ULR4TypeESt6vectorIS3_SaIS3_EEEC1ERKS4_
	.def	_ZN9__gnu_cxx17__normal_iteratorIPPN3ULR4TypeESt6vectorIS3_SaIS3_EEEC1ERKS4_;	.scl	2;	.type	32;	.endef
	.seh_proc	_ZN9__gnu_cxx17__normal_iteratorIPPN3ULR4TypeESt6vectorIS3_SaIS3_EEEC1ERKS4_
_ZN9__gnu_cxx17__normal_iteratorIPPN3ULR4TypeESt6vectorIS3_SaIS3_EEEC1ERKS4_:
.LFB9095:
	push	rbp
	.seh_pushreg	rbp
	mov	rbp, rsp
	.seh_setframe	rbp, 0
	.seh_endprologue
	mov	QWORD PTR 16[rbp], rcx
	mov	QWORD PTR 24[rbp], rdx
	mov	rax, QWORD PTR 24[rbp]
	mov	rdx, QWORD PTR [rax]
	mov	rax, QWORD PTR 16[rbp]
	mov	QWORD PTR [rax], rdx
	nop
	pop	rbp
	ret
	.seh_endproc
	.section	.text$_ZNK9__gnu_cxx17__normal_iteratorIPPN3ULR4TypeESt6vectorIS3_SaIS3_EEE4baseEv,"x"
	.linkonce discard
	.align 2
	.globl	_ZNK9__gnu_cxx17__normal_iteratorIPPN3ULR4TypeESt6vectorIS3_SaIS3_EEE4baseEv
	.def	_ZNK9__gnu_cxx17__normal_iteratorIPPN3ULR4TypeESt6vectorIS3_SaIS3_EEE4baseEv;	.scl	2;	.type	32;	.endef
	.seh_proc	_ZNK9__gnu_cxx17__normal_iteratorIPPN3ULR4TypeESt6vectorIS3_SaIS3_EEE4baseEv
_ZNK9__gnu_cxx17__normal_iteratorIPPN3ULR4TypeESt6vectorIS3_SaIS3_EEE4baseEv:
.LFB9096:
	push	rbp
	.seh_pushreg	rbp
	mov	rbp, rsp
	.seh_setframe	rbp, 0
	.seh_endprologue
	mov	QWORD PTR 16[rbp], rcx
	mov	rax, QWORD PTR 16[rbp]
	pop	rbp
	ret
	.seh_endproc
	.section	.text$_ZSt7forwardIRPN3ULR4TypeEEOT_RNSt16remove_referenceIS4_E4typeE,"x"
	.linkonce discard
	.globl	_ZSt7forwardIRPN3ULR4TypeEEOT_RNSt16remove_referenceIS4_E4typeE
	.def	_ZSt7forwardIRPN3ULR4TypeEEOT_RNSt16remove_referenceIS4_E4typeE;	.scl	2;	.type	32;	.endef
	.seh_proc	_ZSt7forwardIRPN3ULR4TypeEEOT_RNSt16remove_referenceIS4_E4typeE
_ZSt7forwardIRPN3ULR4TypeEEOT_RNSt16remove_referenceIS4_E4typeE:
.LFB9097:
	push	rbp
	.seh_pushreg	rbp
	mov	rbp, rsp
	.seh_setframe	rbp, 0
	.seh_endprologue
	mov	QWORD PTR 16[rbp], rcx
	mov	rax, QWORD PTR 16[rbp]
	pop	rbp
	ret
	.seh_endproc
	.section	.text$_ZNSt6vectorIPN3ULR4TypeESaIS2_EE14_M_emplace_auxIJRS2_EEEN9__gnu_cxx17__normal_iteratorIPS2_S4_EENS8_IPKS2_S4_EEDpOT_,"x"
	.linkonce discard
	.align 2
	.globl	_ZNSt6vectorIPN3ULR4TypeESaIS2_EE14_M_emplace_auxIJRS2_EEEN9__gnu_cxx17__normal_iteratorIPS2_S4_EENS8_IPKS2_S4_EEDpOT_
	.def	_ZNSt6vectorIPN3ULR4TypeESaIS2_EE14_M_emplace_auxIJRS2_EEEN9__gnu_cxx17__normal_iteratorIPS2_S4_EENS8_IPKS2_S4_EEDpOT_;	.scl	2;	.type	32;	.endef
	.seh_proc	_ZNSt6vectorIPN3ULR4TypeESaIS2_EE14_M_emplace_auxIJRS2_EEEN9__gnu_cxx17__normal_iteratorIPS2_S4_EENS8_IPKS2_S4_EEDpOT_
_ZNSt6vectorIPN3ULR4TypeESaIS2_EE14_M_emplace_auxIJRS2_EEEN9__gnu_cxx17__normal_iteratorIPS2_S4_EENS8_IPKS2_S4_EEDpOT_:
.LFB9098:
	push	rbp
	.seh_pushreg	rbp
	push	rbx
	.seh_pushreg	rbx
	sub	rsp, 120
	.seh_stackalloc	120
	lea	rbp, 128[rsp]
	.seh_setframe	rbp, 128
	.seh_endprologue
	mov	QWORD PTR 16[rbp], rcx
	mov	QWORD PTR 24[rbp], rdx
	mov	QWORD PTR 32[rbp], r8
	mov	rcx, QWORD PTR 16[rbp]
	call	_ZNKSt6vectorIPN3ULR4TypeESaIS2_EE6cbeginEv
	mov	QWORD PTR -72[rbp], rax
	lea	rdx, -72[rbp]
	lea	rax, 24[rbp]
	mov	rcx, rax
	call	_ZN9__gnu_cxxmiIPKPN3ULR4TypeESt6vectorIS3_SaIS3_EEEENS_17__normal_iteratorIT_T0_E15difference_typeERKSC_SF_
	mov	QWORD PTR -24[rbp], rax
	mov	rax, QWORD PTR 16[rbp]
	mov	rdx, QWORD PTR 8[rax]
	mov	rax, QWORD PTR 16[rbp]
	mov	rax, QWORD PTR 16[rax]
	cmp	rdx, rax
	je	.L487
	mov	rcx, QWORD PTR 16[rbp]
	call	_ZNKSt6vectorIPN3ULR4TypeESaIS2_EE4cendEv
	mov	QWORD PTR -64[rbp], rax
	lea	rdx, -64[rbp]
	lea	rax, 24[rbp]
	mov	rcx, rax
	call	_ZN9__gnu_cxxeqIPKPN3ULR4TypeESt6vectorIS3_SaIS3_EEEEbRKNS_17__normal_iteratorIT_T0_EESE_
	test	al, al
	je	.L488
	mov	rax, QWORD PTR 32[rbp]
	mov	rcx, rax
	call	_ZSt7forwardIRPN3ULR4TypeEEOT_RNSt16remove_referenceIS4_E4typeE
	mov	rcx, rax
	mov	rax, QWORD PTR 16[rbp]
	mov	rdx, QWORD PTR 8[rax]
	mov	rax, QWORD PTR 16[rbp]
	mov	r8, rcx
	mov	rcx, rax
.LEHB61:
	call	_ZNSt16allocator_traitsISaIPN3ULR4TypeEEE9constructIS2_JRS2_EEEvRS3_PT_DpOT0_
	mov	rax, QWORD PTR 16[rbp]
	mov	rax, QWORD PTR 8[rax]
	lea	rdx, 8[rax]
	mov	rax, QWORD PTR 16[rbp]
	mov	QWORD PTR 8[rax], rdx
	jmp	.L490
.L488:
	mov	rax, QWORD PTR 32[rbp]
	mov	rcx, rax
	call	_ZSt7forwardIRPN3ULR4TypeEEOT_RNSt16remove_referenceIS4_E4typeE
	mov	rdx, rax
	lea	rax, -96[rbp]
	mov	r8, rdx
	mov	rdx, QWORD PTR 16[rbp]
	mov	rcx, rax
	call	_ZNSt6vectorIPN3ULR4TypeESaIS2_EE16_Temporary_valueC1IJRS2_EEEPS4_DpOT_
.LEHE61:
	lea	rax, -96[rbp]
	mov	rcx, rax
	call	_ZNSt6vectorIPN3ULR4TypeESaIS2_EE16_Temporary_value6_M_valEv
	mov	rcx, rax
	call	_ZSt4moveIRPN3ULR4TypeEEONSt16remove_referenceIT_E4typeEOS5_
	mov	rbx, rax
	mov	rcx, QWORD PTR 16[rbp]
	call	_ZNSt6vectorIPN3ULR4TypeESaIS2_EE5beginEv
	mov	QWORD PTR -56[rbp], rax
	mov	rdx, QWORD PTR -24[rbp]
	lea	rax, -56[rbp]
	mov	rcx, rax
	call	_ZNK9__gnu_cxx17__normal_iteratorIPPN3ULR4TypeESt6vectorIS3_SaIS3_EEEplEx
	mov	r8, rbx
	mov	rdx, rax
	mov	rcx, QWORD PTR 16[rbp]
.LEHB62:
	call	_ZNSt6vectorIPN3ULR4TypeESaIS2_EE13_M_insert_auxIS2_EEvN9__gnu_cxx17__normal_iteratorIPS2_S4_EEOT_
.LEHE62:
	lea	rax, -96[rbp]
	mov	rcx, rax
	call	_ZNSt6vectorIPN3ULR4TypeESaIS2_EE16_Temporary_valueD1Ev
	jmp	.L490
.L487:
	mov	rax, QWORD PTR 32[rbp]
	mov	rcx, rax
	call	_ZSt7forwardIRPN3ULR4TypeEEOT_RNSt16remove_referenceIS4_E4typeE
	mov	rbx, rax
	mov	rcx, QWORD PTR 16[rbp]
	call	_ZNSt6vectorIPN3ULR4TypeESaIS2_EE5beginEv
	mov	QWORD PTR -48[rbp], rax
	mov	rdx, QWORD PTR -24[rbp]
	lea	rax, -48[rbp]
	mov	rcx, rax
	call	_ZNK9__gnu_cxx17__normal_iteratorIPPN3ULR4TypeESt6vectorIS3_SaIS3_EEEplEx
	mov	r8, rbx
	mov	rdx, rax
	mov	rcx, QWORD PTR 16[rbp]
.LEHB63:
	call	_ZNSt6vectorIPN3ULR4TypeESaIS2_EE17_M_realloc_insertIJRS2_EEEvN9__gnu_cxx17__normal_iteratorIPS2_S4_EEDpOT_
.L490:
	mov	rax, QWORD PTR 16[rbp]
	mov	rdx, QWORD PTR [rax]
	mov	rax, QWORD PTR -24[rbp]
	sal	rax, 3
	add	rax, rdx
	mov	QWORD PTR -32[rbp], rax
	lea	rdx, -32[rbp]
	lea	rax, -40[rbp]
	mov	rcx, rax
	call	_ZN9__gnu_cxx17__normal_iteratorIPPN3ULR4TypeESt6vectorIS3_SaIS3_EEEC1ERKS4_
	mov	rax, QWORD PTR -40[rbp]
	jmp	.L494
.L493:
	mov	rbx, rax
	lea	rax, -96[rbp]
	mov	rcx, rax
	call	_ZNSt6vectorIPN3ULR4TypeESaIS2_EE16_Temporary_valueD1Ev
	mov	rax, rbx
	mov	rcx, rax
	call	_Unwind_Resume
.LEHE63:
.L494:
	add	rsp, 120
	pop	rbx
	pop	rbp
	ret
	.seh_handler	__gxx_personality_seh0, @unwind, @except
	.seh_handlerdata
.LLSDA9098:
	.byte	0xff
	.byte	0xff
	.byte	0x1
	.uleb128 .LLSDACSE9098-.LLSDACSB9098
.LLSDACSB9098:
	.uleb128 .LEHB61-.LFB9098
	.uleb128 .LEHE61-.LEHB61
	.uleb128 0
	.uleb128 0
	.uleb128 .LEHB62-.LFB9098
	.uleb128 .LEHE62-.LEHB62
	.uleb128 .L493-.LFB9098
	.uleb128 0
	.uleb128 .LEHB63-.LFB9098
	.uleb128 .LEHE63-.LEHB63
	.uleb128 0
	.uleb128 0
.LLSDACSE9098:
	.section	.text$_ZNSt6vectorIPN3ULR4TypeESaIS2_EE14_M_emplace_auxIJRS2_EEEN9__gnu_cxx17__normal_iteratorIPS2_S4_EENS8_IPKS2_S4_EEDpOT_,"x"
	.linkonce discard
	.seh_endproc
	.section	.text$_ZNSt12_Vector_baseIPvSaIS0_EE12_Vector_implD1Ev,"x"
	.linkonce discard
	.align 2
	.globl	_ZNSt12_Vector_baseIPvSaIS0_EE12_Vector_implD1Ev
	.def	_ZNSt12_Vector_baseIPvSaIS0_EE12_Vector_implD1Ev;	.scl	2;	.type	32;	.endef
	.seh_proc	_ZNSt12_Vector_baseIPvSaIS0_EE12_Vector_implD1Ev
_ZNSt12_Vector_baseIPvSaIS0_EE12_Vector_implD1Ev:
.LFB9102:
	push	rbp
	.seh_pushreg	rbp
	mov	rbp, rsp
	.seh_setframe	rbp, 0
	sub	rsp, 32
	.seh_stackalloc	32
	.seh_endprologue
	mov	QWORD PTR 16[rbp], rcx
	mov	rcx, QWORD PTR 16[rbp]
	call	_ZNSaIPvED2Ev
	nop
	add	rsp, 32
	pop	rbp
	ret
	.seh_endproc
	.section	.text$_ZNSt12_Vector_baseIPvSaIS0_EEC2EyRKS1_,"x"
	.linkonce discard
	.align 2
	.globl	_ZNSt12_Vector_baseIPvSaIS0_EEC2EyRKS1_
	.def	_ZNSt12_Vector_baseIPvSaIS0_EEC2EyRKS1_;	.scl	2;	.type	32;	.endef
	.seh_proc	_ZNSt12_Vector_baseIPvSaIS0_EEC2EyRKS1_
_ZNSt12_Vector_baseIPvSaIS0_EEC2EyRKS1_:
.LFB9103:
	push	rbp
	.seh_pushreg	rbp
	push	rbx
	.seh_pushreg	rbx
	sub	rsp, 40
	.seh_stackalloc	40
	lea	rbp, 128[rsp]
	.seh_setframe	rbp, 128
	.seh_endprologue
	mov	QWORD PTR -64[rbp], rcx
	mov	QWORD PTR -56[rbp], rdx
	mov	QWORD PTR -48[rbp], r8
	mov	rax, QWORD PTR -64[rbp]
	mov	rdx, QWORD PTR -48[rbp]
	mov	rcx, rax
	call	_ZNSt12_Vector_baseIPvSaIS0_EE12_Vector_implC1ERKS1_
	mov	rax, QWORD PTR -56[rbp]
	mov	rdx, rax
	mov	rcx, QWORD PTR -64[rbp]
.LEHB64:
	call	_ZNSt12_Vector_baseIPvSaIS0_EE17_M_create_storageEy
.LEHE64:
	jmp	.L499
.L498:
	mov	rbx, rax
	mov	rax, QWORD PTR -64[rbp]
	mov	rcx, rax
	call	_ZNSt12_Vector_baseIPvSaIS0_EE12_Vector_implD1Ev
	mov	rax, rbx
	mov	rcx, rax
.LEHB65:
	call	_Unwind_Resume
	nop
.LEHE65:
.L499:
	add	rsp, 40
	pop	rbx
	pop	rbp
	ret
	.seh_handler	__gxx_personality_seh0, @unwind, @except
	.seh_handlerdata
.LLSDA9103:
	.byte	0xff
	.byte	0xff
	.byte	0x1
	.uleb128 .LLSDACSE9103-.LLSDACSB9103
.LLSDACSB9103:
	.uleb128 .LEHB64-.LFB9103
	.uleb128 .LEHE64-.LEHB64
	.uleb128 .L498-.LFB9103
	.uleb128 0
	.uleb128 .LEHB65-.LFB9103
	.uleb128 .LEHE65-.LEHB65
	.uleb128 0
	.uleb128 0
.LLSDACSE9103:
	.section	.text$_ZNSt12_Vector_baseIPvSaIS0_EEC2EyRKS1_,"x"
	.linkonce discard
	.seh_endproc
	.section	.text$_ZNSt12_Vector_baseIPvSaIS0_EED2Ev,"x"
	.linkonce discard
	.align 2
	.globl	_ZNSt12_Vector_baseIPvSaIS0_EED2Ev
	.def	_ZNSt12_Vector_baseIPvSaIS0_EED2Ev;	.scl	2;	.type	32;	.endef
	.seh_proc	_ZNSt12_Vector_baseIPvSaIS0_EED2Ev
_ZNSt12_Vector_baseIPvSaIS0_EED2Ev:
.LFB9106:
	push	rbp
	.seh_pushreg	rbp
	mov	rbp, rsp
	.seh_setframe	rbp, 0
	sub	rsp, 32
	.seh_stackalloc	32
	.seh_endprologue
	mov	QWORD PTR 16[rbp], rcx
	mov	rax, QWORD PTR 16[rbp]
	mov	rdx, QWORD PTR 16[rax]
	mov	rax, QWORD PTR 16[rbp]
	mov	rax, QWORD PTR [rax]
	sub	rdx, rax
	mov	rax, rdx
	sar	rax, 3
	mov	rdx, rax
	mov	rax, QWORD PTR 16[rbp]
	mov	rax, QWORD PTR [rax]
	mov	r8, rdx
	mov	rdx, rax
	mov	rcx, QWORD PTR 16[rbp]
	call	_ZNSt12_Vector_baseIPvSaIS0_EE13_M_deallocateEPS0_y
	mov	rax, QWORD PTR 16[rbp]
	mov	rcx, rax
	call	_ZNSt12_Vector_baseIPvSaIS0_EE12_Vector_implD1Ev
	nop
	add	rsp, 32
	pop	rbp
	ret
	.seh_handler	__gxx_personality_seh0, @unwind, @except
	.seh_handlerdata
.LLSDA9106:
	.byte	0xff
	.byte	0xff
	.byte	0x1
	.uleb128 .LLSDACSE9106-.LLSDACSB9106
.LLSDACSB9106:
.LLSDACSE9106:
	.section	.text$_ZNSt12_Vector_baseIPvSaIS0_EED2Ev,"x"
	.linkonce discard
	.seh_endproc
	.section	.text$_ZNSt6vectorIPvSaIS0_EE21_M_default_initializeEy,"x"
	.linkonce discard
	.align 2
	.globl	_ZNSt6vectorIPvSaIS0_EE21_M_default_initializeEy
	.def	_ZNSt6vectorIPvSaIS0_EE21_M_default_initializeEy;	.scl	2;	.type	32;	.endef
	.seh_proc	_ZNSt6vectorIPvSaIS0_EE21_M_default_initializeEy
_ZNSt6vectorIPvSaIS0_EE21_M_default_initializeEy:
.LFB9108:
	push	rbp
	.seh_pushreg	rbp
	mov	rbp, rsp
	.seh_setframe	rbp, 0
	sub	rsp, 32
	.seh_stackalloc	32
	.seh_endprologue
	mov	QWORD PTR 16[rbp], rcx
	mov	QWORD PTR 24[rbp], rdx
	mov	rax, QWORD PTR 16[rbp]
	mov	rcx, rax
	call	_ZNSt12_Vector_baseIPvSaIS0_EE19_M_get_Tp_allocatorEv
	mov	rcx, rax
	mov	rax, QWORD PTR 16[rbp]
	mov	rax, QWORD PTR [rax]
	mov	rdx, QWORD PTR 24[rbp]
	mov	r8, rcx
	mov	rcx, rax
	call	_ZSt27__uninitialized_default_n_aIPPvyS0_ET_S2_T0_RSaIT1_E
	mov	rdx, rax
	mov	rax, QWORD PTR 16[rbp]
	mov	QWORD PTR 8[rax], rdx
	nop
	add	rsp, 32
	pop	rbp
	ret
	.seh_endproc
	.section	.text$_ZNSt12_Vector_baseIPvSaIS0_EE19_M_get_Tp_allocatorEv,"x"
	.linkonce discard
	.align 2
	.globl	_ZNSt12_Vector_baseIPvSaIS0_EE19_M_get_Tp_allocatorEv
	.def	_ZNSt12_Vector_baseIPvSaIS0_EE19_M_get_Tp_allocatorEv;	.scl	2;	.type	32;	.endef
	.seh_proc	_ZNSt12_Vector_baseIPvSaIS0_EE19_M_get_Tp_allocatorEv
_ZNSt12_Vector_baseIPvSaIS0_EE19_M_get_Tp_allocatorEv:
.LFB9109:
	push	rbp
	.seh_pushreg	rbp
	mov	rbp, rsp
	.seh_setframe	rbp, 0
	.seh_endprologue
	mov	QWORD PTR 16[rbp], rcx
	mov	rax, QWORD PTR 16[rbp]
	pop	rbp
	ret
	.seh_endproc
	.section	.text$_ZSt8_DestroyIPPvS0_EvT_S2_RSaIT0_E,"x"
	.linkonce discard
	.globl	_ZSt8_DestroyIPPvS0_EvT_S2_RSaIT0_E
	.def	_ZSt8_DestroyIPPvS0_EvT_S2_RSaIT0_E;	.scl	2;	.type	32;	.endef
	.seh_proc	_ZSt8_DestroyIPPvS0_EvT_S2_RSaIT0_E
_ZSt8_DestroyIPPvS0_EvT_S2_RSaIT0_E:
.LFB9110:
	push	rbp
	.seh_pushreg	rbp
	mov	rbp, rsp
	.seh_setframe	rbp, 0
	sub	rsp, 32
	.seh_stackalloc	32
	.seh_endprologue
	mov	QWORD PTR 16[rbp], rcx
	mov	QWORD PTR 24[rbp], rdx
	mov	QWORD PTR 32[rbp], r8
	mov	rax, QWORD PTR 24[rbp]
	mov	rdx, rax
	mov	rcx, QWORD PTR 16[rbp]
	call	_ZSt8_DestroyIPPvEvT_S2_
	nop
	add	rsp, 32
	pop	rbp
	ret
	.seh_endproc
	.section	.text$_ZNKSt6vectorIPvSaIS0_EE11_M_data_ptrIS0_EEPT_S5_,"x"
	.linkonce discard
	.align 2
	.globl	_ZNKSt6vectorIPvSaIS0_EE11_M_data_ptrIS0_EEPT_S5_
	.def	_ZNKSt6vectorIPvSaIS0_EE11_M_data_ptrIS0_EEPT_S5_;	.scl	2;	.type	32;	.endef
	.seh_proc	_ZNKSt6vectorIPvSaIS0_EE11_M_data_ptrIS0_EEPT_S5_
_ZNKSt6vectorIPvSaIS0_EE11_M_data_ptrIS0_EEPT_S5_:
.LFB9111:
	push	rbp
	.seh_pushreg	rbp
	mov	rbp, rsp
	.seh_setframe	rbp, 0
	.seh_endprologue
	mov	QWORD PTR 16[rbp], rcx
	mov	QWORD PTR 24[rbp], rdx
	mov	rax, QWORD PTR 24[rbp]
	pop	rbp
	ret
	.seh_endproc
	.section	.text$_ZSt7forwardIPPN3ULR4TypeEEOT_RNSt16remove_referenceIS4_E4typeE,"x"
	.linkonce discard
	.globl	_ZSt7forwardIPPN3ULR4TypeEEOT_RNSt16remove_referenceIS4_E4typeE
	.def	_ZSt7forwardIPPN3ULR4TypeEEOT_RNSt16remove_referenceIS4_E4typeE;	.scl	2;	.type	32;	.endef
	.seh_proc	_ZSt7forwardIPPN3ULR4TypeEEOT_RNSt16remove_referenceIS4_E4typeE
_ZSt7forwardIPPN3ULR4TypeEEOT_RNSt16remove_referenceIS4_E4typeE:
.LFB9115:
	push	rbp
	.seh_pushreg	rbp
	mov	rbp, rsp
	.seh_setframe	rbp, 0
	.seh_endprologue
	mov	QWORD PTR 16[rbp], rcx
	mov	rax, QWORD PTR 16[rbp]
	pop	rbp
	ret
	.seh_endproc
	.section	.text$_ZNSt6vectorIPvSaIS0_EE14_M_emplace_auxIJPPN3ULR4TypeEEEEN9__gnu_cxx17__normal_iteratorIPS0_S2_EENS9_IPKS0_S2_EEDpOT_,"x"
	.linkonce discard
	.align 2
	.globl	_ZNSt6vectorIPvSaIS0_EE14_M_emplace_auxIJPPN3ULR4TypeEEEEN9__gnu_cxx17__normal_iteratorIPS0_S2_EENS9_IPKS0_S2_EEDpOT_
	.def	_ZNSt6vectorIPvSaIS0_EE14_M_emplace_auxIJPPN3ULR4TypeEEEEN9__gnu_cxx17__normal_iteratorIPS0_S2_EENS9_IPKS0_S2_EEDpOT_;	.scl	2;	.type	32;	.endef
	.seh_proc	_ZNSt6vectorIPvSaIS0_EE14_M_emplace_auxIJPPN3ULR4TypeEEEEN9__gnu_cxx17__normal_iteratorIPS0_S2_EENS9_IPKS0_S2_EEDpOT_
_ZNSt6vectorIPvSaIS0_EE14_M_emplace_auxIJPPN3ULR4TypeEEEEN9__gnu_cxx17__normal_iteratorIPS0_S2_EENS9_IPKS0_S2_EEDpOT_:
.LFB9116:
	push	rbp
	.seh_pushreg	rbp
	push	rbx
	.seh_pushreg	rbx
	sub	rsp, 120
	.seh_stackalloc	120
	lea	rbp, 128[rsp]
	.seh_setframe	rbp, 128
	.seh_endprologue
	mov	QWORD PTR 16[rbp], rcx
	mov	QWORD PTR 24[rbp], rdx
	mov	QWORD PTR 32[rbp], r8
	mov	rcx, QWORD PTR 16[rbp]
	call	_ZNKSt6vectorIPvSaIS0_EE6cbeginEv
	mov	QWORD PTR -72[rbp], rax
	lea	rdx, -72[rbp]
	lea	rax, 24[rbp]
	mov	rcx, rax
	call	_ZN9__gnu_cxxmiIPKPvSt6vectorIS1_SaIS1_EEEENS_17__normal_iteratorIT_T0_E15difference_typeERKSA_SD_
	mov	QWORD PTR -24[rbp], rax
	mov	rax, QWORD PTR 16[rbp]
	mov	rdx, QWORD PTR 8[rax]
	mov	rax, QWORD PTR 16[rbp]
	mov	rax, QWORD PTR 16[rax]
	cmp	rdx, rax
	je	.L510
	mov	rcx, QWORD PTR 16[rbp]
	call	_ZNKSt6vectorIPvSaIS0_EE4cendEv
	mov	QWORD PTR -64[rbp], rax
	lea	rdx, -64[rbp]
	lea	rax, 24[rbp]
	mov	rcx, rax
	call	_ZN9__gnu_cxxeqIPKPvSt6vectorIS1_SaIS1_EEEEbRKNS_17__normal_iteratorIT_T0_EESC_
	test	al, al
	je	.L511
	mov	rax, QWORD PTR 32[rbp]
	mov	rcx, rax
	call	_ZSt7forwardIPPN3ULR4TypeEEOT_RNSt16remove_referenceIS4_E4typeE
	mov	rcx, rax
	mov	rax, QWORD PTR 16[rbp]
	mov	rdx, QWORD PTR 8[rax]
	mov	rax, QWORD PTR 16[rbp]
	mov	r8, rcx
	mov	rcx, rax
.LEHB66:
	call	_ZNSt16allocator_traitsISaIPvEE9constructIS0_JPPN3ULR4TypeEEEEvRS1_PT_DpOT0_
	mov	rax, QWORD PTR 16[rbp]
	mov	rax, QWORD PTR 8[rax]
	lea	rdx, 8[rax]
	mov	rax, QWORD PTR 16[rbp]
	mov	QWORD PTR 8[rax], rdx
	jmp	.L513
.L511:
	mov	rax, QWORD PTR 32[rbp]
	mov	rcx, rax
	call	_ZSt7forwardIPPN3ULR4TypeEEOT_RNSt16remove_referenceIS4_E4typeE
	mov	rdx, rax
	lea	rax, -96[rbp]
	mov	r8, rdx
	mov	rdx, QWORD PTR 16[rbp]
	mov	rcx, rax
	call	_ZNSt6vectorIPvSaIS0_EE16_Temporary_valueC1IJPPN3ULR4TypeEEEEPS2_DpOT_
.LEHE66:
	lea	rax, -96[rbp]
	mov	rcx, rax
	call	_ZNSt6vectorIPvSaIS0_EE16_Temporary_value6_M_valEv
	mov	rcx, rax
	call	_ZSt4moveIRPvEONSt16remove_referenceIT_E4typeEOS3_
	mov	rbx, rax
	mov	rcx, QWORD PTR 16[rbp]
	call	_ZNSt6vectorIPvSaIS0_EE5beginEv
	mov	QWORD PTR -56[rbp], rax
	mov	rdx, QWORD PTR -24[rbp]
	lea	rax, -56[rbp]
	mov	rcx, rax
	call	_ZNK9__gnu_cxx17__normal_iteratorIPPvSt6vectorIS1_SaIS1_EEEplEx
	mov	r8, rbx
	mov	rdx, rax
	mov	rcx, QWORD PTR 16[rbp]
.LEHB67:
	call	_ZNSt6vectorIPvSaIS0_EE13_M_insert_auxIS0_EEvN9__gnu_cxx17__normal_iteratorIPS0_S2_EEOT_
.LEHE67:
	lea	rax, -96[rbp]
	mov	rcx, rax
	call	_ZNSt6vectorIPvSaIS0_EE16_Temporary_valueD1Ev
	jmp	.L513
.L510:
	mov	rax, QWORD PTR 32[rbp]
	mov	rcx, rax
	call	_ZSt7forwardIPPN3ULR4TypeEEOT_RNSt16remove_referenceIS4_E4typeE
	mov	rbx, rax
	mov	rcx, QWORD PTR 16[rbp]
	call	_ZNSt6vectorIPvSaIS0_EE5beginEv
	mov	QWORD PTR -48[rbp], rax
	mov	rdx, QWORD PTR -24[rbp]
	lea	rax, -48[rbp]
	mov	rcx, rax
	call	_ZNK9__gnu_cxx17__normal_iteratorIPPvSt6vectorIS1_SaIS1_EEEplEx
	mov	r8, rbx
	mov	rdx, rax
	mov	rcx, QWORD PTR 16[rbp]
.LEHB68:
	call	_ZNSt6vectorIPvSaIS0_EE17_M_realloc_insertIJPPN3ULR4TypeEEEEvN9__gnu_cxx17__normal_iteratorIPS0_S2_EEDpOT_
.L513:
	mov	rax, QWORD PTR 16[rbp]
	mov	rdx, QWORD PTR [rax]
	mov	rax, QWORD PTR -24[rbp]
	sal	rax, 3
	add	rax, rdx
	mov	QWORD PTR -32[rbp], rax
	lea	rdx, -32[rbp]
	lea	rax, -40[rbp]
	mov	rcx, rax
	call	_ZN9__gnu_cxx17__normal_iteratorIPPvSt6vectorIS1_SaIS1_EEEC1ERKS2_
	mov	rax, QWORD PTR -40[rbp]
	jmp	.L517
.L516:
	mov	rbx, rax
	lea	rax, -96[rbp]
	mov	rcx, rax
	call	_ZNSt6vectorIPvSaIS0_EE16_Temporary_valueD1Ev
	mov	rax, rbx
	mov	rcx, rax
	call	_Unwind_Resume
.LEHE68:
.L517:
	add	rsp, 120
	pop	rbx
	pop	rbp
	ret
	.seh_handler	__gxx_personality_seh0, @unwind, @except
	.seh_handlerdata
.LLSDA9116:
	.byte	0xff
	.byte	0xff
	.byte	0x1
	.uleb128 .LLSDACSE9116-.LLSDACSB9116
.LLSDACSB9116:
	.uleb128 .LEHB66-.LFB9116
	.uleb128 .LEHE66-.LEHB66
	.uleb128 0
	.uleb128 0
	.uleb128 .LEHB67-.LFB9116
	.uleb128 .LEHE67-.LEHB67
	.uleb128 .L516-.LFB9116
	.uleb128 0
	.uleb128 .LEHB68-.LFB9116
	.uleb128 .LEHE68-.LEHB68
	.uleb128 0
	.uleb128 0
.LLSDACSE9116:
	.section	.text$_ZNSt6vectorIPvSaIS0_EE14_M_emplace_auxIJPPN3ULR4TypeEEEEN9__gnu_cxx17__normal_iteratorIPS0_S2_EENS9_IPKS0_S2_EEDpOT_,"x"
	.linkonce discard
	.seh_endproc
	.section	.text$_ZNSt8_Rb_treeIPcSt4pairIKS0_St6vectorIPN3ULR10MemberInfoESaIS6_EEESt10_Select1stIS9_ENS4_11cmp_chr_ptrESaIS9_EE11lower_boundERS2_,"x"
	.linkonce discard
	.align 2
	.globl	_ZNSt8_Rb_treeIPcSt4pairIKS0_St6vectorIPN3ULR10MemberInfoESaIS6_EEESt10_Select1stIS9_ENS4_11cmp_chr_ptrESaIS9_EE11lower_boundERS2_
	.def	_ZNSt8_Rb_treeIPcSt4pairIKS0_St6vectorIPN3ULR10MemberInfoESaIS6_EEESt10_Select1stIS9_ENS4_11cmp_chr_ptrESaIS9_EE11lower_boundERS2_;	.scl	2;	.type	32;	.endef
	.seh_proc	_ZNSt8_Rb_treeIPcSt4pairIKS0_St6vectorIPN3ULR10MemberInfoESaIS6_EEESt10_Select1stIS9_ENS4_11cmp_chr_ptrESaIS9_EE11lower_boundERS2_
_ZNSt8_Rb_treeIPcSt4pairIKS0_St6vectorIPN3ULR10MemberInfoESaIS6_EEESt10_Select1stIS9_ENS4_11cmp_chr_ptrESaIS9_EE11lower_boundERS2_:
.LFB9160:
	push	rbp
	.seh_pushreg	rbp
	push	rbx
	.seh_pushreg	rbx
	sub	rsp, 40
	.seh_stackalloc	40
	lea	rbp, 128[rsp]
	.seh_setframe	rbp, 128
	.seh_endprologue
	mov	QWORD PTR -64[rbp], rcx
	mov	QWORD PTR -56[rbp], rdx
	mov	rcx, QWORD PTR -64[rbp]
	call	_ZNSt8_Rb_treeIPcSt4pairIKS0_St6vectorIPN3ULR10MemberInfoESaIS6_EEESt10_Select1stIS9_ENS4_11cmp_chr_ptrESaIS9_EE6_M_endEv
	mov	rbx, rax
	mov	rcx, QWORD PTR -64[rbp]
	call	_ZNSt8_Rb_treeIPcSt4pairIKS0_St6vectorIPN3ULR10MemberInfoESaIS6_EEESt10_Select1stIS9_ENS4_11cmp_chr_ptrESaIS9_EE8_M_beginEv
	mov	rdx, rax
	mov	rax, QWORD PTR -56[rbp]
	mov	r9, rax
	mov	r8, rbx
	mov	rcx, QWORD PTR -64[rbp]
	call	_ZNSt8_Rb_treeIPcSt4pairIKS0_St6vectorIPN3ULR10MemberInfoESaIS6_EEESt10_Select1stIS9_ENS4_11cmp_chr_ptrESaIS9_EE14_M_lower_boundEPSt13_Rb_tree_nodeIS9_EPSt18_Rb_tree_node_baseRS2_
	add	rsp, 40
	pop	rbx
	pop	rbp
	ret
	.seh_endproc
	.section	.text$_ZNKSt8_Rb_treeIPcSt4pairIKS0_St6vectorIPN3ULR10MemberInfoESaIS6_EEESt10_Select1stIS9_ENS4_11cmp_chr_ptrESaIS9_EE8key_compEv,"x"
	.linkonce discard
	.align 2
	.globl	_ZNKSt8_Rb_treeIPcSt4pairIKS0_St6vectorIPN3ULR10MemberInfoESaIS6_EEESt10_Select1stIS9_ENS4_11cmp_chr_ptrESaIS9_EE8key_compEv
	.def	_ZNKSt8_Rb_treeIPcSt4pairIKS0_St6vectorIPN3ULR10MemberInfoESaIS6_EEESt10_Select1stIS9_ENS4_11cmp_chr_ptrESaIS9_EE8key_compEv;	.scl	2;	.type	32;	.endef
	.seh_proc	_ZNKSt8_Rb_treeIPcSt4pairIKS0_St6vectorIPN3ULR10MemberInfoESaIS6_EEESt10_Select1stIS9_ENS4_11cmp_chr_ptrESaIS9_EE8key_compEv
_ZNKSt8_Rb_treeIPcSt4pairIKS0_St6vectorIPN3ULR10MemberInfoESaIS6_EEESt10_Select1stIS9_ENS4_11cmp_chr_ptrESaIS9_EE8key_compEv:
.LFB9161:
	push	rbp
	.seh_pushreg	rbp
	mov	rbp, rsp
	.seh_setframe	rbp, 0
	.seh_endprologue
	mov	QWORD PTR 16[rbp], rcx
	pop	rbp
	ret
	.seh_endproc
	.section	.text$_ZSt7forwardIRKSt21piecewise_construct_tEOT_RNSt16remove_referenceIS3_E4typeE,"x"
	.linkonce discard
	.globl	_ZSt7forwardIRKSt21piecewise_construct_tEOT_RNSt16remove_referenceIS3_E4typeE
	.def	_ZSt7forwardIRKSt21piecewise_construct_tEOT_RNSt16remove_referenceIS3_E4typeE;	.scl	2;	.type	32;	.endef
	.seh_proc	_ZSt7forwardIRKSt21piecewise_construct_tEOT_RNSt16remove_referenceIS3_E4typeE
_ZSt7forwardIRKSt21piecewise_construct_tEOT_RNSt16remove_referenceIS3_E4typeE:
.LFB9165:
	push	rbp
	.seh_pushreg	rbp
	mov	rbp, rsp
	.seh_setframe	rbp, 0
	.seh_endprologue
	mov	QWORD PTR 16[rbp], rcx
	mov	rax, QWORD PTR 16[rbp]
	pop	rbp
	ret
	.seh_endproc
	.section	.text$_ZSt7forwardISt5tupleIJEEEOT_RNSt16remove_referenceIS2_E4typeE,"x"
	.linkonce discard
	.globl	_ZSt7forwardISt5tupleIJEEEOT_RNSt16remove_referenceIS2_E4typeE
	.def	_ZSt7forwardISt5tupleIJEEEOT_RNSt16remove_referenceIS2_E4typeE;	.scl	2;	.type	32;	.endef
	.seh_proc	_ZSt7forwardISt5tupleIJEEEOT_RNSt16remove_referenceIS2_E4typeE
_ZSt7forwardISt5tupleIJEEEOT_RNSt16remove_referenceIS2_E4typeE:
.LFB9167:
	push	rbp
	.seh_pushreg	rbp
	mov	rbp, rsp
	.seh_setframe	rbp, 0
	.seh_endprologue
	mov	QWORD PTR 16[rbp], rcx
	mov	rax, QWORD PTR 16[rbp]
	pop	rbp
	ret
	.seh_endproc
	.section	.text$_ZNSt8_Rb_treeIPcSt4pairIKS0_St6vectorIPN3ULR10MemberInfoESaIS6_EEESt10_Select1stIS9_ENS4_11cmp_chr_ptrESaIS9_EE29_M_get_insert_hint_unique_posESt23_Rb_tree_const_iteratorIS9_ERS2_,"x"
	.linkonce discard
	.align 2
	.globl	_ZNSt8_Rb_treeIPcSt4pairIKS0_St6vectorIPN3ULR10MemberInfoESaIS6_EEESt10_Select1stIS9_ENS4_11cmp_chr_ptrESaIS9_EE29_M_get_insert_hint_unique_posESt23_Rb_tree_const_iteratorIS9_ERS2_
	.def	_ZNSt8_Rb_treeIPcSt4pairIKS0_St6vectorIPN3ULR10MemberInfoESaIS6_EEESt10_Select1stIS9_ENS4_11cmp_chr_ptrESaIS9_EE29_M_get_insert_hint_unique_posESt23_Rb_tree_const_iteratorIS9_ERS2_;	.scl	2;	.type	32;	.endef
	.seh_proc	_ZNSt8_Rb_treeIPcSt4pairIKS0_St6vectorIPN3ULR10MemberInfoESaIS6_EEESt10_Select1stIS9_ENS4_11cmp_chr_ptrESaIS9_EE29_M_get_insert_hint_unique_posESt23_Rb_tree_const_iteratorIS9_ERS2_
_ZNSt8_Rb_treeIPcSt4pairIKS0_St6vectorIPN3ULR10MemberInfoESaIS6_EEESt10_Select1stIS9_ENS4_11cmp_chr_ptrESaIS9_EE29_M_get_insert_hint_unique_posESt23_Rb_tree_const_iteratorIS9_ERS2_:
.LFB9169:
	push	rbp
	.seh_pushreg	rbp
	push	rsi
	.seh_pushreg	rsi
	push	rbx
	.seh_pushreg	rbx
	mov	rbp, rsp
	.seh_setframe	rbp, 0
	sub	rsp, 96
	.seh_stackalloc	96
	.seh_endprologue
	mov	QWORD PTR 32[rbp], rcx
	mov	QWORD PTR 40[rbp], rdx
	mov	QWORD PTR 48[rbp], r8
	mov	QWORD PTR 56[rbp], r9
	lea	rax, 48[rbp]
	mov	rcx, rax
	call	_ZNKSt23_Rb_tree_const_iteratorISt4pairIKPcSt6vectorIPN3ULR10MemberInfoESaIS6_EEEE13_M_const_castEv
	mov	QWORD PTR -48[rbp], rax
	mov	rbx, QWORD PTR -48[rbp]
	mov	rax, QWORD PTR 40[rbp]
	mov	rcx, rax
	call	_ZNSt8_Rb_treeIPcSt4pairIKS0_St6vectorIPN3ULR10MemberInfoESaIS6_EEESt10_Select1stIS9_ENS4_11cmp_chr_ptrESaIS9_EE6_M_endEv
	cmp	rbx, rax
	sete	al
	test	al, al
	je	.L527
	mov	rax, QWORD PTR 40[rbp]
	mov	rcx, rax
	call	_ZNKSt8_Rb_treeIPcSt4pairIKS0_St6vectorIPN3ULR10MemberInfoESaIS6_EEESt10_Select1stIS9_ENS4_11cmp_chr_ptrESaIS9_EE4sizeEv
	test	rax, rax
	je	.L528
	mov	rbx, QWORD PTR 40[rbp]
	mov	rax, QWORD PTR 56[rbp]
	mov	rsi, QWORD PTR [rax]
	mov	rax, QWORD PTR 40[rbp]
	mov	rcx, rax
	call	_ZNSt8_Rb_treeIPcSt4pairIKS0_St6vectorIPN3ULR10MemberInfoESaIS6_EEESt10_Select1stIS9_ENS4_11cmp_chr_ptrESaIS9_EE12_M_rightmostEv
	mov	rax, QWORD PTR [rax]
	mov	rcx, rax
	call	_ZNSt8_Rb_treeIPcSt4pairIKS0_St6vectorIPN3ULR10MemberInfoESaIS6_EEESt10_Select1stIS9_ENS4_11cmp_chr_ptrESaIS9_EE6_S_keyEPKSt18_Rb_tree_node_base
	mov	rax, QWORD PTR [rax]
	mov	r8, rsi
	mov	rdx, rax
	mov	rcx, rbx
	call	_ZNK3ULR11cmp_chr_ptrclEPKcS2_
	test	al, al
	je	.L528
	mov	eax, 1
	jmp	.L529
.L528:
	mov	eax, 0
.L529:
	test	al, al
	je	.L530
	mov	rax, QWORD PTR 40[rbp]
	mov	rcx, rax
	call	_ZNSt8_Rb_treeIPcSt4pairIKS0_St6vectorIPN3ULR10MemberInfoESaIS6_EEESt10_Select1stIS9_ENS4_11cmp_chr_ptrESaIS9_EE12_M_rightmostEv
	mov	rdx, rax
	mov	QWORD PTR -40[rbp], 0
	lea	rax, -40[rbp]
	mov	r8, rdx
	mov	rdx, rax
	mov	rcx, QWORD PTR 32[rbp]
	call	_ZNSt4pairIPSt18_Rb_tree_node_baseS1_EC1IRS1_Lb1EEERKS1_OT_
	jmp	.L526
.L530:
	mov	rax, QWORD PTR 32[rbp]
	mov	rcx, QWORD PTR 56[rbp]
	mov	rdx, QWORD PTR 40[rbp]
	mov	r8, rcx
	mov	rcx, rax
	call	_ZNSt8_Rb_treeIPcSt4pairIKS0_St6vectorIPN3ULR10MemberInfoESaIS6_EEESt10_Select1stIS9_ENS4_11cmp_chr_ptrESaIS9_EE24_M_get_insert_unique_posERS2_
	jmp	.L526
.L527:
	mov	rbx, QWORD PTR 40[rbp]
	mov	rax, QWORD PTR -48[rbp]
	mov	rcx, rax
	call	_ZNSt8_Rb_treeIPcSt4pairIKS0_St6vectorIPN3ULR10MemberInfoESaIS6_EEESt10_Select1stIS9_ENS4_11cmp_chr_ptrESaIS9_EE6_S_keyEPKSt18_Rb_tree_node_base
	mov	rdx, QWORD PTR [rax]
	mov	rax, QWORD PTR 56[rbp]
	mov	rax, QWORD PTR [rax]
	mov	r8, rdx
	mov	rdx, rax
	mov	rcx, rbx
	call	_ZNK3ULR11cmp_chr_ptrclEPKcS2_
	test	al, al
	je	.L532
	mov	rax, QWORD PTR -48[rbp]
	mov	QWORD PTR -56[rbp], rax
	mov	rbx, QWORD PTR -48[rbp]
	mov	rax, QWORD PTR 40[rbp]
	mov	rcx, rax
	call	_ZNSt8_Rb_treeIPcSt4pairIKS0_St6vectorIPN3ULR10MemberInfoESaIS6_EEESt10_Select1stIS9_ENS4_11cmp_chr_ptrESaIS9_EE11_M_leftmostEv
	mov	rax, QWORD PTR [rax]
	cmp	rbx, rax
	sete	al
	test	al, al
	je	.L533
	mov	rax, QWORD PTR 40[rbp]
	mov	rcx, rax
	call	_ZNSt8_Rb_treeIPcSt4pairIKS0_St6vectorIPN3ULR10MemberInfoESaIS6_EEESt10_Select1stIS9_ENS4_11cmp_chr_ptrESaIS9_EE11_M_leftmostEv
	mov	rbx, rax
	mov	rax, QWORD PTR 40[rbp]
	mov	rcx, rax
	call	_ZNSt8_Rb_treeIPcSt4pairIKS0_St6vectorIPN3ULR10MemberInfoESaIS6_EEESt10_Select1stIS9_ENS4_11cmp_chr_ptrESaIS9_EE11_M_leftmostEv
	mov	r8, rbx
	mov	rdx, rax
	mov	rcx, QWORD PTR 32[rbp]
	call	_ZNSt4pairIPSt18_Rb_tree_node_baseS1_EC1IRS1_S4_Lb1EEEOT_OT0_
	jmp	.L526
.L533:
	mov	rbx, QWORD PTR 40[rbp]
	mov	rax, QWORD PTR 56[rbp]
	mov	rsi, QWORD PTR [rax]
	lea	rax, -56[rbp]
	mov	rcx, rax
	call	_ZNSt17_Rb_tree_iteratorISt4pairIKPcSt6vectorIPN3ULR10MemberInfoESaIS6_EEEEmmEv
	mov	rax, QWORD PTR [rax]
	mov	rcx, rax
	call	_ZNSt8_Rb_treeIPcSt4pairIKS0_St6vectorIPN3ULR10MemberInfoESaIS6_EEESt10_Select1stIS9_ENS4_11cmp_chr_ptrESaIS9_EE6_S_keyEPKSt18_Rb_tree_node_base
	mov	rax, QWORD PTR [rax]
	mov	r8, rsi
	mov	rdx, rax
	mov	rcx, rbx
	call	_ZNK3ULR11cmp_chr_ptrclEPKcS2_
	test	al, al
	je	.L535
	mov	rax, QWORD PTR -56[rbp]
	mov	rcx, rax
	call	_ZNSt8_Rb_treeIPcSt4pairIKS0_St6vectorIPN3ULR10MemberInfoESaIS6_EEESt10_Select1stIS9_ENS4_11cmp_chr_ptrESaIS9_EE8_S_rightEPSt18_Rb_tree_node_base
	test	rax, rax
	sete	al
	test	al, al
	je	.L536
	mov	QWORD PTR -32[rbp], 0
	lea	rdx, -56[rbp]
	lea	rax, -32[rbp]
	mov	r8, rdx
	mov	rdx, rax
	mov	rcx, QWORD PTR 32[rbp]
	call	_ZNSt4pairIPSt18_Rb_tree_node_baseS1_EC1IRS1_Lb1EEERKS1_OT_
	jmp	.L526
.L536:
	lea	rdx, -48[rbp]
	lea	rax, -48[rbp]
	mov	r8, rdx
	mov	rdx, rax
	mov	rcx, QWORD PTR 32[rbp]
	call	_ZNSt4pairIPSt18_Rb_tree_node_baseS1_EC1IRS1_S4_Lb1EEEOT_OT0_
	jmp	.L526
.L535:
	mov	rax, QWORD PTR 32[rbp]
	mov	rcx, QWORD PTR 56[rbp]
	mov	rdx, QWORD PTR 40[rbp]
	mov	r8, rcx
	mov	rcx, rax
	call	_ZNSt8_Rb_treeIPcSt4pairIKS0_St6vectorIPN3ULR10MemberInfoESaIS6_EEESt10_Select1stIS9_ENS4_11cmp_chr_ptrESaIS9_EE24_M_get_insert_unique_posERS2_
	jmp	.L526
.L532:
	mov	rbx, QWORD PTR 40[rbp]
	mov	rax, QWORD PTR 56[rbp]
	mov	rsi, QWORD PTR [rax]
	mov	rax, QWORD PTR -48[rbp]
	mov	rcx, rax
	call	_ZNSt8_Rb_treeIPcSt4pairIKS0_St6vectorIPN3ULR10MemberInfoESaIS6_EEESt10_Select1stIS9_ENS4_11cmp_chr_ptrESaIS9_EE6_S_keyEPKSt18_Rb_tree_node_base
	mov	rax, QWORD PTR [rax]
	mov	r8, rsi
	mov	rdx, rax
	mov	rcx, rbx
	call	_ZNK3ULR11cmp_chr_ptrclEPKcS2_
	test	al, al
	je	.L537
	mov	rax, QWORD PTR -48[rbp]
	mov	QWORD PTR -64[rbp], rax
	mov	rbx, QWORD PTR -48[rbp]
	mov	rax, QWORD PTR 40[rbp]
	mov	rcx, rax
	call	_ZNSt8_Rb_treeIPcSt4pairIKS0_St6vectorIPN3ULR10MemberInfoESaIS6_EEESt10_Select1stIS9_ENS4_11cmp_chr_ptrESaIS9_EE12_M_rightmostEv
	mov	rax, QWORD PTR [rax]
	cmp	rbx, rax
	sete	al
	test	al, al
	je	.L538
	mov	rax, QWORD PTR 40[rbp]
	mov	rcx, rax
	call	_ZNSt8_Rb_treeIPcSt4pairIKS0_St6vectorIPN3ULR10MemberInfoESaIS6_EEESt10_Select1stIS9_ENS4_11cmp_chr_ptrESaIS9_EE12_M_rightmostEv
	mov	rdx, rax
	mov	QWORD PTR -24[rbp], 0
	lea	rax, -24[rbp]
	mov	r8, rdx
	mov	rdx, rax
	mov	rcx, QWORD PTR 32[rbp]
	call	_ZNSt4pairIPSt18_Rb_tree_node_baseS1_EC1IRS1_Lb1EEERKS1_OT_
	jmp	.L526
.L538:
	mov	rbx, QWORD PTR 40[rbp]
	lea	rax, -64[rbp]
	mov	rcx, rax
	call	_ZNSt17_Rb_tree_iteratorISt4pairIKPcSt6vectorIPN3ULR10MemberInfoESaIS6_EEEEppEv
	mov	rax, QWORD PTR [rax]
	mov	rcx, rax
	call	_ZNSt8_Rb_treeIPcSt4pairIKS0_St6vectorIPN3ULR10MemberInfoESaIS6_EEESt10_Select1stIS9_ENS4_11cmp_chr_ptrESaIS9_EE6_S_keyEPKSt18_Rb_tree_node_base
	mov	rdx, QWORD PTR [rax]
	mov	rax, QWORD PTR 56[rbp]
	mov	rax, QWORD PTR [rax]
	mov	r8, rdx
	mov	rdx, rax
	mov	rcx, rbx
	call	_ZNK3ULR11cmp_chr_ptrclEPKcS2_
	test	al, al
	je	.L540
	mov	rax, QWORD PTR -48[rbp]
	mov	rcx, rax
	call	_ZNSt8_Rb_treeIPcSt4pairIKS0_St6vectorIPN3ULR10MemberInfoESaIS6_EEESt10_Select1stIS9_ENS4_11cmp_chr_ptrESaIS9_EE8_S_rightEPSt18_Rb_tree_node_base
	test	rax, rax
	sete	al
	test	al, al
	je	.L541
	mov	QWORD PTR -16[rbp], 0
	lea	rdx, -48[rbp]
	lea	rax, -16[rbp]
	mov	r8, rdx
	mov	rdx, rax
	mov	rcx, QWORD PTR 32[rbp]
	call	_ZNSt4pairIPSt18_Rb_tree_node_baseS1_EC1IRS1_Lb1EEERKS1_OT_
	jmp	.L526
.L541:
	lea	rdx, -64[rbp]
	lea	rax, -64[rbp]
	mov	r8, rdx
	mov	rdx, rax
	mov	rcx, QWORD PTR 32[rbp]
	call	_ZNSt4pairIPSt18_Rb_tree_node_baseS1_EC1IRS1_S4_Lb1EEEOT_OT0_
	jmp	.L526
.L540:
	mov	rax, QWORD PTR 32[rbp]
	mov	rcx, QWORD PTR 56[rbp]
	mov	rdx, QWORD PTR 40[rbp]
	mov	r8, rcx
	mov	rcx, rax
	call	_ZNSt8_Rb_treeIPcSt4pairIKS0_St6vectorIPN3ULR10MemberInfoESaIS6_EEESt10_Select1stIS9_ENS4_11cmp_chr_ptrESaIS9_EE24_M_get_insert_unique_posERS2_
	jmp	.L526
.L537:
	mov	QWORD PTR -8[rbp], 0
	lea	rdx, -8[rbp]
	lea	rax, -48[rbp]
	mov	r8, rdx
	mov	rdx, rax
	mov	rcx, QWORD PTR 32[rbp]
	call	_ZNSt4pairIPSt18_Rb_tree_node_baseS1_EC1IRS1_Lb1EEEOT_RKS1_
.L526:
	mov	rax, QWORD PTR 32[rbp]
	add	rsp, 96
	pop	rbx
	pop	rsi
	pop	rbp
	ret
	.seh_endproc
	.section	.text$_ZNSt8_Rb_treeIPcSt4pairIKS0_St6vectorIPN3ULR10MemberInfoESaIS6_EEESt10_Select1stIS9_ENS4_11cmp_chr_ptrESaIS9_EE6_S_keyEPKSt13_Rb_tree_nodeIS9_E,"x"
	.linkonce discard
	.globl	_ZNSt8_Rb_treeIPcSt4pairIKS0_St6vectorIPN3ULR10MemberInfoESaIS6_EEESt10_Select1stIS9_ENS4_11cmp_chr_ptrESaIS9_EE6_S_keyEPKSt13_Rb_tree_nodeIS9_E
	.def	_ZNSt8_Rb_treeIPcSt4pairIKS0_St6vectorIPN3ULR10MemberInfoESaIS6_EEESt10_Select1stIS9_ENS4_11cmp_chr_ptrESaIS9_EE6_S_keyEPKSt13_Rb_tree_nodeIS9_E;	.scl	2;	.type	32;	.endef
	.seh_proc	_ZNSt8_Rb_treeIPcSt4pairIKS0_St6vectorIPN3ULR10MemberInfoESaIS6_EEESt10_Select1stIS9_ENS4_11cmp_chr_ptrESaIS9_EE6_S_keyEPKSt13_Rb_tree_nodeIS9_E
_ZNSt8_Rb_treeIPcSt4pairIKS0_St6vectorIPN3ULR10MemberInfoESaIS6_EEESt10_Select1stIS9_ENS4_11cmp_chr_ptrESaIS9_EE6_S_keyEPKSt13_Rb_tree_nodeIS9_E:
.LFB9186:
	push	rbp
	.seh_pushreg	rbp
	mov	rbp, rsp
	.seh_setframe	rbp, 0
	sub	rsp, 48
	.seh_stackalloc	48
	.seh_endprologue
	mov	QWORD PTR 16[rbp], rcx
	mov	rcx, QWORD PTR 16[rbp]
	call	_ZNSt8_Rb_treeIPcSt4pairIKS0_St6vectorIPN3ULR10MemberInfoESaIS6_EEESt10_Select1stIS9_ENS4_11cmp_chr_ptrESaIS9_EE8_S_valueEPKSt13_Rb_tree_nodeIS9_E
	mov	rdx, rax
	lea	rax, -1[rbp]
	mov	rcx, rax
	call	_ZNKSt10_Select1stISt4pairIKPcSt6vectorIPN3ULR10MemberInfoESaIS6_EEEEclERKS9_
	nop
	add	rsp, 48
	pop	rbp
	ret
	.seh_endproc
	.section	.text$_ZNSt8_Rb_treeIPcSt4pairIKS0_St6vectorIPN3ULR10MemberInfoESaIS6_EEESt10_Select1stIS9_ENS4_11cmp_chr_ptrESaIS9_EE14_M_insert_nodeEPSt18_Rb_tree_node_baseSG_PSt13_Rb_tree_nodeIS9_E,"x"
	.linkonce discard
	.align 2
	.globl	_ZNSt8_Rb_treeIPcSt4pairIKS0_St6vectorIPN3ULR10MemberInfoESaIS6_EEESt10_Select1stIS9_ENS4_11cmp_chr_ptrESaIS9_EE14_M_insert_nodeEPSt18_Rb_tree_node_baseSG_PSt13_Rb_tree_nodeIS9_E
	.def	_ZNSt8_Rb_treeIPcSt4pairIKS0_St6vectorIPN3ULR10MemberInfoESaIS6_EEESt10_Select1stIS9_ENS4_11cmp_chr_ptrESaIS9_EE14_M_insert_nodeEPSt18_Rb_tree_node_baseSG_PSt13_Rb_tree_nodeIS9_E;	.scl	2;	.type	32;	.endef
	.seh_proc	_ZNSt8_Rb_treeIPcSt4pairIKS0_St6vectorIPN3ULR10MemberInfoESaIS6_EEESt10_Select1stIS9_ENS4_11cmp_chr_ptrESaIS9_EE14_M_insert_nodeEPSt18_Rb_tree_node_baseSG_PSt13_Rb_tree_nodeIS9_E
_ZNSt8_Rb_treeIPcSt4pairIKS0_St6vectorIPN3ULR10MemberInfoESaIS6_EEESt10_Select1stIS9_ENS4_11cmp_chr_ptrESaIS9_EE14_M_insert_nodeEPSt18_Rb_tree_node_baseSG_PSt13_Rb_tree_nodeIS9_E:
.LFB9187:
	push	rbp
	.seh_pushreg	rbp
	push	rsi
	.seh_pushreg	rsi
	push	rbx
	.seh_pushreg	rbx
	mov	rbp, rsp
	.seh_setframe	rbp, 0
	sub	rsp, 48
	.seh_stackalloc	48
	.seh_endprologue
	mov	QWORD PTR 32[rbp], rcx
	mov	QWORD PTR 40[rbp], rdx
	mov	QWORD PTR 48[rbp], r8
	mov	QWORD PTR 56[rbp], r9
	cmp	QWORD PTR 40[rbp], 0
	jne	.L546
	mov	rcx, QWORD PTR 32[rbp]
	call	_ZNSt8_Rb_treeIPcSt4pairIKS0_St6vectorIPN3ULR10MemberInfoESaIS6_EEESt10_Select1stIS9_ENS4_11cmp_chr_ptrESaIS9_EE6_M_endEv
	cmp	QWORD PTR 48[rbp], rax
	je	.L546
	mov	rbx, QWORD PTR 32[rbp]
	mov	rax, QWORD PTR 48[rbp]
	mov	rcx, rax
	call	_ZNSt8_Rb_treeIPcSt4pairIKS0_St6vectorIPN3ULR10MemberInfoESaIS6_EEESt10_Select1stIS9_ENS4_11cmp_chr_ptrESaIS9_EE6_S_keyEPKSt18_Rb_tree_node_base
	mov	rsi, QWORD PTR [rax]
	mov	rax, QWORD PTR 56[rbp]
	mov	rcx, rax
	call	_ZNSt8_Rb_treeIPcSt4pairIKS0_St6vectorIPN3ULR10MemberInfoESaIS6_EEESt10_Select1stIS9_ENS4_11cmp_chr_ptrESaIS9_EE6_S_keyEPKSt13_Rb_tree_nodeIS9_E
	mov	rax, QWORD PTR [rax]
	mov	r8, rsi
	mov	rdx, rax
	mov	rcx, rbx
	call	_ZNK3ULR11cmp_chr_ptrclEPKcS2_
	test	al, al
	je	.L547
.L546:
	mov	eax, 1
	jmp	.L548
.L547:
	mov	eax, 0
.L548:
	mov	BYTE PTR -1[rbp], al
	mov	rax, QWORD PTR 32[rbp]
	lea	r8, 8[rax]
	movzx	eax, BYTE PTR -1[rbp]
	mov	rcx, QWORD PTR 48[rbp]
	mov	rdx, QWORD PTR 56[rbp]
	mov	r9, r8
	mov	r8, rcx
	mov	ecx, eax
	call	_ZSt29_Rb_tree_insert_and_rebalancebPSt18_Rb_tree_node_baseS0_RS_
	mov	rax, QWORD PTR 32[rbp]
	mov	rax, QWORD PTR 40[rax]
	lea	rdx, 1[rax]
	mov	rax, QWORD PTR 32[rbp]
	mov	QWORD PTR 40[rax], rdx
	mov	rdx, QWORD PTR 56[rbp]
	lea	rax, -16[rbp]
	mov	rcx, rax
	call	_ZNSt17_Rb_tree_iteratorISt4pairIKPcSt6vectorIPN3ULR10MemberInfoESaIS6_EEEEC1EPSt18_Rb_tree_node_base
	mov	rax, QWORD PTR -16[rbp]
	add	rsp, 48
	pop	rbx
	pop	rsi
	pop	rbp
	ret
	.seh_endproc
	.section	.text$_ZNSt8_Rb_treeIPcSt4pairIKS0_St6vectorIPN3ULR10MemberInfoESaIS6_EEESt10_Select1stIS9_ENS4_11cmp_chr_ptrESaIS9_EE12_M_drop_nodeEPSt13_Rb_tree_nodeIS9_E,"x"
	.linkonce discard
	.align 2
	.globl	_ZNSt8_Rb_treeIPcSt4pairIKS0_St6vectorIPN3ULR10MemberInfoESaIS6_EEESt10_Select1stIS9_ENS4_11cmp_chr_ptrESaIS9_EE12_M_drop_nodeEPSt13_Rb_tree_nodeIS9_E
	.def	_ZNSt8_Rb_treeIPcSt4pairIKS0_St6vectorIPN3ULR10MemberInfoESaIS6_EEESt10_Select1stIS9_ENS4_11cmp_chr_ptrESaIS9_EE12_M_drop_nodeEPSt13_Rb_tree_nodeIS9_E;	.scl	2;	.type	32;	.endef
	.seh_proc	_ZNSt8_Rb_treeIPcSt4pairIKS0_St6vectorIPN3ULR10MemberInfoESaIS6_EEESt10_Select1stIS9_ENS4_11cmp_chr_ptrESaIS9_EE12_M_drop_nodeEPSt13_Rb_tree_nodeIS9_E
_ZNSt8_Rb_treeIPcSt4pairIKS0_St6vectorIPN3ULR10MemberInfoESaIS6_EEESt10_Select1stIS9_ENS4_11cmp_chr_ptrESaIS9_EE12_M_drop_nodeEPSt13_Rb_tree_nodeIS9_E:
.LFB9188:
	push	rbp
	.seh_pushreg	rbp
	mov	rbp, rsp
	.seh_setframe	rbp, 0
	sub	rsp, 32
	.seh_stackalloc	32
	.seh_endprologue
	mov	QWORD PTR 16[rbp], rcx
	mov	QWORD PTR 24[rbp], rdx
	mov	rax, QWORD PTR 24[rbp]
	mov	rdx, rax
	mov	rcx, QWORD PTR 16[rbp]
	call	_ZNSt8_Rb_treeIPcSt4pairIKS0_St6vectorIPN3ULR10MemberInfoESaIS6_EEESt10_Select1stIS9_ENS4_11cmp_chr_ptrESaIS9_EE15_M_destroy_nodeEPSt13_Rb_tree_nodeIS9_E
	mov	rax, QWORD PTR 24[rbp]
	mov	rdx, rax
	mov	rcx, QWORD PTR 16[rbp]
	call	_ZNSt8_Rb_treeIPcSt4pairIKS0_St6vectorIPN3ULR10MemberInfoESaIS6_EEESt10_Select1stIS9_ENS4_11cmp_chr_ptrESaIS9_EE11_M_put_nodeEPSt13_Rb_tree_nodeIS9_E
	nop
	add	rsp, 32
	pop	rbp
	ret
	.seh_endproc
	.section	.text$_ZNSt17_Rb_tree_iteratorISt4pairIKPcSt6vectorIPN3ULR10MemberInfoESaIS6_EEEEC1EPSt18_Rb_tree_node_base,"x"
	.linkonce discard
	.align 2
	.globl	_ZNSt17_Rb_tree_iteratorISt4pairIKPcSt6vectorIPN3ULR10MemberInfoESaIS6_EEEEC1EPSt18_Rb_tree_node_base
	.def	_ZNSt17_Rb_tree_iteratorISt4pairIKPcSt6vectorIPN3ULR10MemberInfoESaIS6_EEEEC1EPSt18_Rb_tree_node_base;	.scl	2;	.type	32;	.endef
	.seh_proc	_ZNSt17_Rb_tree_iteratorISt4pairIKPcSt6vectorIPN3ULR10MemberInfoESaIS6_EEEEC1EPSt18_Rb_tree_node_base
_ZNSt17_Rb_tree_iteratorISt4pairIKPcSt6vectorIPN3ULR10MemberInfoESaIS6_EEEEC1EPSt18_Rb_tree_node_base:
.LFB9191:
	push	rbp
	.seh_pushreg	rbp
	mov	rbp, rsp
	.seh_setframe	rbp, 0
	.seh_endprologue
	mov	QWORD PTR 16[rbp], rcx
	mov	QWORD PTR 24[rbp], rdx
	mov	rax, QWORD PTR 16[rbp]
	mov	rdx, QWORD PTR 24[rbp]
	mov	QWORD PTR [rax], rdx
	nop
	pop	rbp
	ret
	.seh_endproc
	.section	.text$_ZNSt16allocator_traitsISaIPN3ULR10MemberInfoEEE37select_on_container_copy_constructionERKS3_,"x"
	.linkonce discard
	.globl	_ZNSt16allocator_traitsISaIPN3ULR10MemberInfoEEE37select_on_container_copy_constructionERKS3_
	.def	_ZNSt16allocator_traitsISaIPN3ULR10MemberInfoEEE37select_on_container_copy_constructionERKS3_;	.scl	2;	.type	32;	.endef
	.seh_proc	_ZNSt16allocator_traitsISaIPN3ULR10MemberInfoEEE37select_on_container_copy_constructionERKS3_
_ZNSt16allocator_traitsISaIPN3ULR10MemberInfoEEE37select_on_container_copy_constructionERKS3_:
.LFB9192:
	push	rbp
	.seh_pushreg	rbp
	mov	rbp, rsp
	.seh_setframe	rbp, 0
	sub	rsp, 32
	.seh_stackalloc	32
	.seh_endprologue
	mov	QWORD PTR 16[rbp], rcx
	mov	QWORD PTR 24[rbp], rdx
	mov	rax, QWORD PTR 24[rbp]
	mov	rdx, rax
	mov	rcx, QWORD PTR 16[rbp]
	call	_ZNSaIPN3ULR10MemberInfoEEC1ERKS2_
	mov	rax, QWORD PTR 16[rbp]
	add	rsp, 32
	pop	rbp
	ret
	.seh_endproc
	.section	.text$_ZNSaIPN3ULR10MemberInfoEEC2ERKS2_,"x"
	.linkonce discard
	.align 2
	.globl	_ZNSaIPN3ULR10MemberInfoEEC2ERKS2_
	.def	_ZNSaIPN3ULR10MemberInfoEEC2ERKS2_;	.scl	2;	.type	32;	.endef
	.seh_proc	_ZNSaIPN3ULR10MemberInfoEEC2ERKS2_
_ZNSaIPN3ULR10MemberInfoEEC2ERKS2_:
.LFB9194:
	push	rbp
	.seh_pushreg	rbp
	mov	rbp, rsp
	.seh_setframe	rbp, 0
	sub	rsp, 32
	.seh_stackalloc	32
	.seh_endprologue
	mov	QWORD PTR 16[rbp], rcx
	mov	QWORD PTR 24[rbp], rdx
	mov	rax, QWORD PTR 24[rbp]
	mov	rdx, rax
	mov	rcx, QWORD PTR 16[rbp]
	call	_ZN9__gnu_cxx13new_allocatorIPN3ULR10MemberInfoEEC2ERKS4_
	nop
	add	rsp, 32
	pop	rbp
	ret
	.seh_endproc
	.section	.text$_ZNSaIPN3ULR10MemberInfoEEC1ERKS2_,"x"
	.linkonce discard
	.align 2
	.globl	_ZNSaIPN3ULR10MemberInfoEEC1ERKS2_
	.def	_ZNSaIPN3ULR10MemberInfoEEC1ERKS2_;	.scl	2;	.type	32;	.endef
	.seh_proc	_ZNSaIPN3ULR10MemberInfoEEC1ERKS2_
_ZNSaIPN3ULR10MemberInfoEEC1ERKS2_:
.LFB9195:
	push	rbp
	.seh_pushreg	rbp
	mov	rbp, rsp
	.seh_setframe	rbp, 0
	sub	rsp, 32
	.seh_stackalloc	32
	.seh_endprologue
	mov	QWORD PTR 16[rbp], rcx
	mov	QWORD PTR 24[rbp], rdx
	mov	rax, QWORD PTR 24[rbp]
	mov	rdx, rax
	mov	rcx, QWORD PTR 16[rbp]
	call	_ZN9__gnu_cxx13new_allocatorIPN3ULR10MemberInfoEEC2ERKS4_
	nop
	add	rsp, 32
	pop	rbp
	ret
	.seh_endproc
	.section	.text$_ZN9__gnu_cxx13new_allocatorIPN3ULR10MemberInfoEED2Ev,"x"
	.linkonce discard
	.align 2
	.globl	_ZN9__gnu_cxx13new_allocatorIPN3ULR10MemberInfoEED2Ev
	.def	_ZN9__gnu_cxx13new_allocatorIPN3ULR10MemberInfoEED2Ev;	.scl	2;	.type	32;	.endef
	.seh_proc	_ZN9__gnu_cxx13new_allocatorIPN3ULR10MemberInfoEED2Ev
_ZN9__gnu_cxx13new_allocatorIPN3ULR10MemberInfoEED2Ev:
.LFB9197:
	push	rbp
	.seh_pushreg	rbp
	mov	rbp, rsp
	.seh_setframe	rbp, 0
	.seh_endprologue
	mov	QWORD PTR 16[rbp], rcx
	nop
	pop	rbp
	ret
	.seh_endproc
	.section	.text$_ZNSt12_Vector_baseIPN3ULR10MemberInfoESaIS2_EE12_Vector_implC1ERKS3_,"x"
	.linkonce discard
	.align 2
	.globl	_ZNSt12_Vector_baseIPN3ULR10MemberInfoESaIS2_EE12_Vector_implC1ERKS3_
	.def	_ZNSt12_Vector_baseIPN3ULR10MemberInfoESaIS2_EE12_Vector_implC1ERKS3_;	.scl	2;	.type	32;	.endef
	.seh_proc	_ZNSt12_Vector_baseIPN3ULR10MemberInfoESaIS2_EE12_Vector_implC1ERKS3_
_ZNSt12_Vector_baseIPN3ULR10MemberInfoESaIS2_EE12_Vector_implC1ERKS3_:
.LFB9201:
	push	rbp
	.seh_pushreg	rbp
	mov	rbp, rsp
	.seh_setframe	rbp, 0
	sub	rsp, 32
	.seh_stackalloc	32
	.seh_endprologue
	mov	QWORD PTR 16[rbp], rcx
	mov	QWORD PTR 24[rbp], rdx
	mov	rax, QWORD PTR 24[rbp]
	mov	rdx, rax
	mov	rcx, QWORD PTR 16[rbp]
	call	_ZNSaIPN3ULR10MemberInfoEEC2ERKS2_
	mov	rax, QWORD PTR 16[rbp]
	mov	QWORD PTR [rax], 0
	mov	rax, QWORD PTR 16[rbp]
	mov	QWORD PTR 8[rax], 0
	mov	rax, QWORD PTR 16[rbp]
	mov	QWORD PTR 16[rax], 0
	nop
	add	rsp, 32
	pop	rbp
	ret
	.seh_endproc
	.section	.text$_ZNSt12_Vector_baseIPN3ULR10MemberInfoESaIS2_EE17_M_create_storageEy,"x"
	.linkonce discard
	.align 2
	.globl	_ZNSt12_Vector_baseIPN3ULR10MemberInfoESaIS2_EE17_M_create_storageEy
	.def	_ZNSt12_Vector_baseIPN3ULR10MemberInfoESaIS2_EE17_M_create_storageEy;	.scl	2;	.type	32;	.endef
	.seh_proc	_ZNSt12_Vector_baseIPN3ULR10MemberInfoESaIS2_EE17_M_create_storageEy
_ZNSt12_Vector_baseIPN3ULR10MemberInfoESaIS2_EE17_M_create_storageEy:
.LFB9202:
	push	rbp
	.seh_pushreg	rbp
	mov	rbp, rsp
	.seh_setframe	rbp, 0
	sub	rsp, 32
	.seh_stackalloc	32
	.seh_endprologue
	mov	QWORD PTR 16[rbp], rcx
	mov	QWORD PTR 24[rbp], rdx
	mov	rax, QWORD PTR 24[rbp]
	mov	rdx, rax
	mov	rcx, QWORD PTR 16[rbp]
	call	_ZNSt12_Vector_baseIPN3ULR10MemberInfoESaIS2_EE11_M_allocateEy
	mov	rdx, rax
	mov	rax, QWORD PTR 16[rbp]
	mov	QWORD PTR [rax], rdx
	mov	rax, QWORD PTR 16[rbp]
	mov	rdx, QWORD PTR [rax]
	mov	rax, QWORD PTR 16[rbp]
	mov	QWORD PTR 8[rax], rdx
	mov	rax, QWORD PTR 16[rbp]
	mov	rdx, QWORD PTR [rax]
	mov	rax, QWORD PTR 24[rbp]
	sal	rax, 3
	add	rdx, rax
	mov	rax, QWORD PTR 16[rbp]
	mov	QWORD PTR 16[rax], rdx
	nop
	add	rsp, 32
	pop	rbp
	ret
	.seh_endproc
	.section	.text$_ZNSt12_Vector_baseIPN3ULR10MemberInfoESaIS2_EE13_M_deallocateEPS2_y,"x"
	.linkonce discard
	.align 2
	.globl	_ZNSt12_Vector_baseIPN3ULR10MemberInfoESaIS2_EE13_M_deallocateEPS2_y
	.def	_ZNSt12_Vector_baseIPN3ULR10MemberInfoESaIS2_EE13_M_deallocateEPS2_y;	.scl	2;	.type	32;	.endef
	.seh_proc	_ZNSt12_Vector_baseIPN3ULR10MemberInfoESaIS2_EE13_M_deallocateEPS2_y
_ZNSt12_Vector_baseIPN3ULR10MemberInfoESaIS2_EE13_M_deallocateEPS2_y:
.LFB9203:
	push	rbp
	.seh_pushreg	rbp
	mov	rbp, rsp
	.seh_setframe	rbp, 0
	sub	rsp, 32
	.seh_stackalloc	32
	.seh_endprologue
	mov	QWORD PTR 16[rbp], rcx
	mov	QWORD PTR 24[rbp], rdx
	mov	QWORD PTR 32[rbp], r8
	cmp	QWORD PTR 24[rbp], 0
	je	.L561
	mov	rax, QWORD PTR 16[rbp]
	mov	rcx, QWORD PTR 32[rbp]
	mov	rdx, QWORD PTR 24[rbp]
	mov	r8, rcx
	mov	rcx, rax
	call	_ZNSt16allocator_traitsISaIPN3ULR10MemberInfoEEE10deallocateERS3_PS2_y
.L561:
	nop
	add	rsp, 32
	pop	rbp
	ret
	.seh_endproc
	.section	.text$_ZN9__gnu_cxx17__normal_iteratorIPKPN3ULR10MemberInfoESt6vectorIS3_SaIS3_EEEC1ERKS5_,"x"
	.linkonce discard
	.align 2
	.globl	_ZN9__gnu_cxx17__normal_iteratorIPKPN3ULR10MemberInfoESt6vectorIS3_SaIS3_EEEC1ERKS5_
	.def	_ZN9__gnu_cxx17__normal_iteratorIPKPN3ULR10MemberInfoESt6vectorIS3_SaIS3_EEEC1ERKS5_;	.scl	2;	.type	32;	.endef
	.seh_proc	_ZN9__gnu_cxx17__normal_iteratorIPKPN3ULR10MemberInfoESt6vectorIS3_SaIS3_EEEC1ERKS5_
_ZN9__gnu_cxx17__normal_iteratorIPKPN3ULR10MemberInfoESt6vectorIS3_SaIS3_EEEC1ERKS5_:
.LFB9206:
	push	rbp
	.seh_pushreg	rbp
	mov	rbp, rsp
	.seh_setframe	rbp, 0
	.seh_endprologue
	mov	QWORD PTR 16[rbp], rcx
	mov	QWORD PTR 24[rbp], rdx
	mov	rax, QWORD PTR 24[rbp]
	mov	rdx, QWORD PTR [rax]
	mov	rax, QWORD PTR 16[rbp]
	mov	QWORD PTR [rax], rdx
	nop
	pop	rbp
	ret
	.seh_endproc
	.section	.text$_ZSt18uninitialized_copyIN9__gnu_cxx17__normal_iteratorIPKPN3ULR10MemberInfoESt6vectorIS4_SaIS4_EEEEPS4_ET0_T_SD_SC_,"x"
	.linkonce discard
	.globl	_ZSt18uninitialized_copyIN9__gnu_cxx17__normal_iteratorIPKPN3ULR10MemberInfoESt6vectorIS4_SaIS4_EEEEPS4_ET0_T_SD_SC_
	.def	_ZSt18uninitialized_copyIN9__gnu_cxx17__normal_iteratorIPKPN3ULR10MemberInfoESt6vectorIS4_SaIS4_EEEEPS4_ET0_T_SD_SC_;	.scl	2;	.type	32;	.endef
	.seh_proc	_ZSt18uninitialized_copyIN9__gnu_cxx17__normal_iteratorIPKPN3ULR10MemberInfoESt6vectorIS4_SaIS4_EEEEPS4_ET0_T_SD_SC_
_ZSt18uninitialized_copyIN9__gnu_cxx17__normal_iteratorIPKPN3ULR10MemberInfoESt6vectorIS4_SaIS4_EEEEPS4_ET0_T_SD_SC_:
.LFB9207:
	push	rbp
	.seh_pushreg	rbp
	mov	rbp, rsp
	.seh_setframe	rbp, 0
	sub	rsp, 48
	.seh_stackalloc	48
	.seh_endprologue
	mov	QWORD PTR 16[rbp], rcx
	mov	QWORD PTR 24[rbp], rdx
	mov	QWORD PTR 32[rbp], r8
	mov	BYTE PTR -1[rbp], 1
	mov	rdx, QWORD PTR 32[rbp]
	mov	rax, QWORD PTR 24[rbp]
	mov	r8, rdx
	mov	rdx, rax
	mov	rcx, QWORD PTR 16[rbp]
	call	_ZNSt20__uninitialized_copyILb1EE13__uninit_copyIN9__gnu_cxx17__normal_iteratorIPKPN3ULR10MemberInfoESt6vectorIS6_SaIS6_EEEEPS6_EET0_T_SF_SE_
	add	rsp, 48
	pop	rbp
	ret
	.seh_endproc
	.section	.text$_ZSt8_DestroyIPPN3ULR10MemberInfoEEvT_S4_,"x"
	.linkonce discard
	.globl	_ZSt8_DestroyIPPN3ULR10MemberInfoEEvT_S4_
	.def	_ZSt8_DestroyIPPN3ULR10MemberInfoEEvT_S4_;	.scl	2;	.type	32;	.endef
	.seh_proc	_ZSt8_DestroyIPPN3ULR10MemberInfoEEvT_S4_
_ZSt8_DestroyIPPN3ULR10MemberInfoEEvT_S4_:
.LFB9208:
	push	rbp
	.seh_pushreg	rbp
	mov	rbp, rsp
	.seh_setframe	rbp, 0
	sub	rsp, 32
	.seh_stackalloc	32
	.seh_endprologue
	mov	QWORD PTR 16[rbp], rcx
	mov	QWORD PTR 24[rbp], rdx
	mov	rax, QWORD PTR 24[rbp]
	mov	rdx, rax
	mov	rcx, QWORD PTR 16[rbp]
	call	_ZNSt12_Destroy_auxILb1EE9__destroyIPPN3ULR10MemberInfoEEEvT_S6_
	nop
	add	rsp, 32
	pop	rbp
	ret
	.seh_endproc
	.section	.text$_ZNSt12_Vector_baseIPN3ULR10MemberInfoESaIS2_EE11_M_allocateEy,"x"
	.linkonce discard
	.align 2
	.globl	_ZNSt12_Vector_baseIPN3ULR10MemberInfoESaIS2_EE11_M_allocateEy
	.def	_ZNSt12_Vector_baseIPN3ULR10MemberInfoESaIS2_EE11_M_allocateEy;	.scl	2;	.type	32;	.endef
	.seh_proc	_ZNSt12_Vector_baseIPN3ULR10MemberInfoESaIS2_EE11_M_allocateEy
_ZNSt12_Vector_baseIPN3ULR10MemberInfoESaIS2_EE11_M_allocateEy:
.LFB9212:
	push	rbp
	.seh_pushreg	rbp
	mov	rbp, rsp
	.seh_setframe	rbp, 0
	sub	rsp, 32
	.seh_stackalloc	32
	.seh_endprologue
	mov	QWORD PTR 16[rbp], rcx
	mov	QWORD PTR 24[rbp], rdx
	cmp	QWORD PTR 24[rbp], 0
	je	.L567
	mov	rax, QWORD PTR 16[rbp]
	mov	rdx, QWORD PTR 24[rbp]
	mov	rcx, rax
	call	_ZNSt16allocator_traitsISaIPN3ULR10MemberInfoEEE8allocateERS3_y
	jmp	.L569
.L567:
	mov	eax, 0
.L569:
	add	rsp, 32
	pop	rbp
	ret
	.seh_endproc
	.section	.text$_ZSt7forwardIPcEOT_RNSt16remove_referenceIS1_E4typeE,"x"
	.linkonce discard
	.globl	_ZSt7forwardIPcEOT_RNSt16remove_referenceIS1_E4typeE
	.def	_ZSt7forwardIPcEOT_RNSt16remove_referenceIS1_E4typeE;	.scl	2;	.type	32;	.endef
	.seh_proc	_ZSt7forwardIPcEOT_RNSt16remove_referenceIS1_E4typeE
_ZSt7forwardIPcEOT_RNSt16remove_referenceIS1_E4typeE:
.LFB9220:
	push	rbp
	.seh_pushreg	rbp
	mov	rbp, rsp
	.seh_setframe	rbp, 0
	.seh_endprologue
	mov	QWORD PTR 16[rbp], rcx
	mov	rax, QWORD PTR 16[rbp]
	pop	rbp
	ret
	.seh_endproc
	.section	.text$_ZNSt5tupleIJOPcEEC1IJS0_ELb1EEEDpOT_,"x"
	.linkonce discard
	.align 2
	.globl	_ZNSt5tupleIJOPcEEC1IJS0_ELb1EEEDpOT_
	.def	_ZNSt5tupleIJOPcEEC1IJS0_ELb1EEEDpOT_;	.scl	2;	.type	32;	.endef
	.seh_proc	_ZNSt5tupleIJOPcEEC1IJS0_ELb1EEEDpOT_
_ZNSt5tupleIJOPcEEC1IJS0_ELb1EEEDpOT_:
.LFB9223:
	push	rbp
	.seh_pushreg	rbp
	push	rbx
	.seh_pushreg	rbx
	sub	rsp, 40
	.seh_stackalloc	40
	lea	rbp, 128[rsp]
	.seh_setframe	rbp, 128
	.seh_endprologue
	mov	QWORD PTR -64[rbp], rcx
	mov	QWORD PTR -56[rbp], rdx
	mov	rbx, QWORD PTR -64[rbp]
	mov	rax, QWORD PTR -56[rbp]
	mov	rcx, rax
	call	_ZSt7forwardIPcEOT_RNSt16remove_referenceIS1_E4typeE
	mov	rdx, rax
	mov	rcx, rbx
	call	_ZNSt11_Tuple_implILy0EJOPcEEC2IS0_EEOT_
	nop
	add	rsp, 40
	pop	rbx
	pop	rbp
	ret
	.seh_endproc
	.section	.text$_ZNSt11_Tuple_implILy0EJOPcEEC2EOS2_,"x"
	.linkonce discard
	.align 2
	.globl	_ZNSt11_Tuple_implILy0EJOPcEEC2EOS2_
	.def	_ZNSt11_Tuple_implILy0EJOPcEEC2EOS2_;	.scl	2;	.type	32;	.endef
	.seh_proc	_ZNSt11_Tuple_implILy0EJOPcEEC2EOS2_
_ZNSt11_Tuple_implILy0EJOPcEEC2EOS2_:
.LFB9225:
	push	rbp
	.seh_pushreg	rbp
	push	rbx
	.seh_pushreg	rbx
	sub	rsp, 40
	.seh_stackalloc	40
	lea	rbp, 128[rsp]
	.seh_setframe	rbp, 128
	.seh_endprologue
	mov	QWORD PTR -64[rbp], rcx
	mov	QWORD PTR -56[rbp], rdx
	mov	rbx, QWORD PTR -64[rbp]
	mov	rax, QWORD PTR -56[rbp]
	mov	rcx, rax
	call	_ZNSt11_Tuple_implILy0EJOPcEE7_M_headERS2_
	mov	rcx, rax
	call	_ZSt7forwardIOPcEOT_RNSt16remove_referenceIS2_E4typeE
	mov	rdx, rax
	mov	rcx, rbx
	call	_ZNSt10_Head_baseILy0EOPcLb0EEC2IS0_EEOT_
	nop
	add	rsp, 40
	pop	rbx
	pop	rbp
	ret
	.seh_endproc
